
Merging program properties

Removed property 0xc0000002 to merge binaries/Lab4_alloc_free.o (0x3) and binaries/start.o (not found)
Removed property 0xc0000002 to merge binaries/Lab4_alloc_free.o (not found) and binaries/Lab4_do_stk_expend.o (0x3)
Removed property 0xc0000002 to merge binaries/Lab4_alloc_free.o (not found) and binaries/Lab4_fillpgentry.o (0x3)
Removed property 0xc0000002 to merge binaries/Lab4_alloc_free.o (not found) and binaries/Lab4_getheap.o (0x3)
Removed property 0xc0000002 to merge binaries/Lab4_alloc_free.o (not found) and binaries/Lab4_invlpg.o (0x3)
Removed property 0xc0000002 to merge binaries/Lab4_alloc_free.o (not found) and binaries/Lab4_log2ph.o (0x3)
Removed property 0xc0000002 to merge binaries/Lab4_alloc_free.o (not found) and binaries/Lab4_memlib.o (0x3)
Removed property 0xc0000002 to merge binaries/Lab4_alloc_free.o (not found) and binaries/Lab4_memory_pools.o (0x3)
Removed property 0xc0000002 to merge binaries/Lab4_alloc_free.o (not found) and binaries/ascdate.o (0x3)
Removed property 0xc0000002 to merge binaries/Lab4_alloc_free.o (not found) and binaries/bufinit.o (0x3)
Removed property 0xc0000002 to merge binaries/Lab4_alloc_free.o (not found) and binaries/chprio.o (0x3)
Removed property 0xc0000002 to merge binaries/Lab4_alloc_free.o (not found) and binaries/clkhandler.o (0x3)
Removed property 0xc0000002 to merge binaries/Lab4_alloc_free.o (not found) and binaries/clkinit.o (0x3)
Removed property 0xc0000002 to merge binaries/Lab4_alloc_free.o (not found) and binaries/close.o (0x3)
Removed property 0xc0000002 to merge binaries/Lab4_alloc_free.o (not found) and binaries/conf.o (0x3)
Removed property 0xc0000002 to merge binaries/Lab4_alloc_free.o (not found) and binaries/control.o (0x3)
Removed property 0xc0000002 to merge binaries/Lab4_alloc_free.o (not found) and binaries/create.o (0x3)
Removed property 0xc0000002 to merge binaries/Lab4_alloc_free.o (not found) and binaries/evec.o (0x3)
Removed property 0xc0000002 to merge binaries/Lab4_alloc_free.o (not found) and binaries/exit.o (0x3)
Removed property 0xc0000002 to merge binaries/Lab4_alloc_free.o (not found) and binaries/freebuf.o (0x3)
Removed property 0xc0000002 to merge binaries/Lab4_alloc_free.o (not found) and binaries/freemem.o (0x3)
Removed property 0xc0000002 to merge binaries/Lab4_alloc_free.o (not found) and binaries/getbuf.o (0x3)
Removed property 0xc0000002 to merge binaries/Lab4_alloc_free.o (not found) and binaries/getc.o (0x3)
Removed property 0xc0000002 to merge binaries/Lab4_alloc_free.o (not found) and binaries/getdev.o (0x3)
Removed property 0xc0000002 to merge binaries/Lab4_alloc_free.o (not found) and binaries/getitem.o (0x3)
Removed property 0xc0000002 to merge binaries/Lab4_alloc_free.o (not found) and binaries/getmem.o (0x3)
Removed property 0xc0000002 to merge binaries/Lab4_alloc_free.o (not found) and binaries/getpid.o (0x3)
Removed property 0xc0000002 to merge binaries/Lab4_alloc_free.o (not found) and binaries/getprio.o (0x3)
Removed property 0xc0000002 to merge binaries/Lab4_alloc_free.o (not found) and binaries/getstk.o (0x3)
Removed property 0xc0000002 to merge binaries/Lab4_alloc_free.o (not found) and binaries/getticks.o (0x3)
Removed property 0xc0000002 to merge binaries/Lab4_alloc_free.o (not found) and binaries/gettime.o (0x3)
Removed property 0xc0000002 to merge binaries/Lab4_alloc_free.o (not found) and binaries/getutime.o (0x3)
Removed property 0xc0000002 to merge binaries/Lab4_alloc_free.o (not found) and binaries/init.o (0x3)
Removed property 0xc0000002 to merge binaries/Lab4_alloc_free.o (not found) and binaries/initialize.o (0x3)
Removed property 0xc0000002 to merge binaries/Lab4_alloc_free.o (not found) and binaries/insert.o (0x3)
Removed property 0xc0000002 to merge binaries/Lab4_alloc_free.o (not found) and binaries/insertd.o (0x3)
Removed property 0xc0000002 to merge binaries/Lab4_alloc_free.o (not found) and binaries/ioerr.o (0x3)
Removed property 0xc0000002 to merge binaries/Lab4_alloc_free.o (not found) and binaries/ionull.o (0x3)
Removed property 0xc0000002 to merge binaries/Lab4_alloc_free.o (not found) and binaries/kill.o (0x3)
Removed property 0xc0000002 to merge binaries/Lab4_alloc_free.o (not found) and binaries/kprintf.o (0x3)
Removed property 0xc0000002 to merge binaries/Lab4_alloc_free.o (not found) and binaries/main.o (0x3)
Removed property 0xc0000002 to merge binaries/Lab4_alloc_free.o (not found) and binaries/mark.o (0x3)
Removed property 0xc0000002 to merge binaries/Lab4_alloc_free.o (not found) and binaries/mkbufpool.o (0x3)
Removed property 0xc0000002 to merge binaries/Lab4_alloc_free.o (not found) and binaries/newqueue.o (0x3)
Removed property 0xc0000002 to merge binaries/Lab4_alloc_free.o (not found) and binaries/open.o (0x3)
Removed property 0xc0000002 to merge binaries/Lab4_alloc_free.o (not found) and binaries/panic.o (0x3)
Removed property 0xc0000002 to merge binaries/Lab4_alloc_free.o (not found) and binaries/platinit.o (0x3)
Removed property 0xc0000002 to merge binaries/Lab4_alloc_free.o (not found) and binaries/ptclear.o (0x3)
Removed property 0xc0000002 to merge binaries/Lab4_alloc_free.o (not found) and binaries/ptcount.o (0x3)
Removed property 0xc0000002 to merge binaries/Lab4_alloc_free.o (not found) and binaries/ptcreate.o (0x3)
Removed property 0xc0000002 to merge binaries/Lab4_alloc_free.o (not found) and binaries/ptdelete.o (0x3)
Removed property 0xc0000002 to merge binaries/Lab4_alloc_free.o (not found) and binaries/ptinit.o (0x3)
Removed property 0xc0000002 to merge binaries/Lab4_alloc_free.o (not found) and binaries/ptrecv.o (0x3)
Removed property 0xc0000002 to merge binaries/Lab4_alloc_free.o (not found) and binaries/ptreset.o (0x3)
Removed property 0xc0000002 to merge binaries/Lab4_alloc_free.o (not found) and binaries/ptsend.o (0x3)
Removed property 0xc0000002 to merge binaries/Lab4_alloc_free.o (not found) and binaries/putc.o (0x3)
Removed property 0xc0000002 to merge binaries/Lab4_alloc_free.o (not found) and binaries/queue.o (0x3)
Removed property 0xc0000002 to merge binaries/Lab4_alloc_free.o (not found) and binaries/read.o (0x3)
Removed property 0xc0000002 to merge binaries/Lab4_alloc_free.o (not found) and binaries/ready.o (0x3)
Removed property 0xc0000002 to merge binaries/Lab4_alloc_free.o (not found) and binaries/receive.o (0x3)
Removed property 0xc0000002 to merge binaries/Lab4_alloc_free.o (not found) and binaries/recvclr.o (0x3)
Removed property 0xc0000002 to merge binaries/Lab4_alloc_free.o (not found) and binaries/recvtime.o (0x3)
Removed property 0xc0000002 to merge binaries/Lab4_alloc_free.o (not found) and binaries/resched.o (0x3)
Removed property 0xc0000002 to merge binaries/Lab4_alloc_free.o (not found) and binaries/resume.o (0x3)
Removed property 0xc0000002 to merge binaries/Lab4_alloc_free.o (not found) and binaries/seek.o (0x3)
Removed property 0xc0000002 to merge binaries/Lab4_alloc_free.o (not found) and binaries/semcount.o (0x3)
Removed property 0xc0000002 to merge binaries/Lab4_alloc_free.o (not found) and binaries/semcreate.o (0x3)
Removed property 0xc0000002 to merge binaries/Lab4_alloc_free.o (not found) and binaries/semdelete.o (0x3)
Removed property 0xc0000002 to merge binaries/Lab4_alloc_free.o (not found) and binaries/semreset.o (0x3)
Removed property 0xc0000002 to merge binaries/Lab4_alloc_free.o (not found) and binaries/send.o (0x3)
Removed property 0xc0000002 to merge binaries/Lab4_alloc_free.o (not found) and binaries/signal.o (0x3)
Removed property 0xc0000002 to merge binaries/Lab4_alloc_free.o (not found) and binaries/signaln.o (0x3)
Removed property 0xc0000002 to merge binaries/Lab4_alloc_free.o (not found) and binaries/sleep.o (0x3)
Removed property 0xc0000002 to merge binaries/Lab4_alloc_free.o (not found) and binaries/stacktrace.o (0x3)
Removed property 0xc0000002 to merge binaries/Lab4_alloc_free.o (not found) and binaries/suspend.o (0x3)
Removed property 0xc0000002 to merge binaries/Lab4_alloc_free.o (not found) and binaries/unsleep.o (0x3)
Removed property 0xc0000002 to merge binaries/Lab4_alloc_free.o (not found) and binaries/userret.o (0x3)
Removed property 0xc0000002 to merge binaries/Lab4_alloc_free.o (not found) and binaries/vminit.o (0x3)
Removed property 0xc0000002 to merge binaries/Lab4_alloc_free.o (not found) and binaries/wait.o (0x3)
Removed property 0xc0000002 to merge binaries/Lab4_alloc_free.o (not found) and binaries/wakeup.o (0x3)
Removed property 0xc0000002 to merge binaries/Lab4_alloc_free.o (not found) and binaries/write.o (0x3)
Removed property 0xc0000002 to merge binaries/Lab4_alloc_free.o (not found) and binaries/xdone.o (0x3)
Removed property 0xc0000002 to merge binaries/Lab4_alloc_free.o (not found) and binaries/yield.o (0x3)
Removed property 0xc0000002 to merge binaries/Lab4_alloc_free.o (not found) and binaries/abs.o (0x3)
Removed property 0xc0000002 to merge binaries/Lab4_alloc_free.o (not found) and binaries/atoi.o (0x3)
Removed property 0xc0000002 to merge binaries/Lab4_alloc_free.o (not found) and binaries/atol.o (0x3)
Removed property 0xc0000002 to merge binaries/Lab4_alloc_free.o (not found) and binaries/bzero.o (0x3)
Removed property 0xc0000002 to merge binaries/Lab4_alloc_free.o (not found) and binaries/ctype_.o (0x3)
Removed property 0xc0000002 to merge binaries/Lab4_alloc_free.o (not found) and binaries/doprnt.o (0x3)
Removed property 0xc0000002 to merge binaries/Lab4_alloc_free.o (not found) and binaries/doscan.o (0x3)
Removed property 0xc0000002 to merge binaries/Lab4_alloc_free.o (not found) and binaries/fdoprnt.o (0x3)
Removed property 0xc0000002 to merge binaries/Lab4_alloc_free.o (not found) and binaries/fgetc.o (0x3)
Removed property 0xc0000002 to merge binaries/Lab4_alloc_free.o (not found) and binaries/fgets.o (0x3)
Removed property 0xc0000002 to merge binaries/Lab4_alloc_free.o (not found) and binaries/fprintf.o (0x3)
Removed property 0xc0000002 to merge binaries/Lab4_alloc_free.o (not found) and binaries/fputc.o (0x3)
Removed property 0xc0000002 to merge binaries/Lab4_alloc_free.o (not found) and binaries/fputs.o (0x3)
Removed property 0xc0000002 to merge binaries/Lab4_alloc_free.o (not found) and binaries/fscanf.o (0x3)
Removed property 0xc0000002 to merge binaries/Lab4_alloc_free.o (not found) and binaries/getchar.o (0x3)
Removed property 0xc0000002 to merge binaries/Lab4_alloc_free.o (not found) and binaries/labs.o (0x3)
Removed property 0xc0000002 to merge binaries/Lab4_alloc_free.o (not found) and binaries/memchr.o (0x3)
Removed property 0xc0000002 to merge binaries/Lab4_alloc_free.o (not found) and binaries/memcmp.o (0x3)
Removed property 0xc0000002 to merge binaries/Lab4_alloc_free.o (not found) and binaries/memcpy.o (0x3)
Removed property 0xc0000002 to merge binaries/Lab4_alloc_free.o (not found) and binaries/memset.o (0x3)
Removed property 0xc0000002 to merge binaries/Lab4_alloc_free.o (not found) and binaries/printf.o (0x3)
Removed property 0xc0000002 to merge binaries/Lab4_alloc_free.o (not found) and binaries/putchar.o (0x3)
Removed property 0xc0000002 to merge binaries/Lab4_alloc_free.o (not found) and binaries/qsort.o (0x3)
Removed property 0xc0000002 to merge binaries/Lab4_alloc_free.o (not found) and binaries/rand.o (0x3)
Removed property 0xc0000002 to merge binaries/Lab4_alloc_free.o (not found) and binaries/sprintf.o (0x3)
Removed property 0xc0000002 to merge binaries/Lab4_alloc_free.o (not found) and binaries/sscanf.o (0x3)
Removed property 0xc0000002 to merge binaries/Lab4_alloc_free.o (not found) and binaries/strchr.o (0x3)
Removed property 0xc0000002 to merge binaries/Lab4_alloc_free.o (not found) and binaries/strcmp.o (0x3)
Removed property 0xc0000002 to merge binaries/Lab4_alloc_free.o (not found) and binaries/strcpy.o (0x3)
Removed property 0xc0000002 to merge binaries/Lab4_alloc_free.o (not found) and binaries/strlen.o (0x3)
Removed property 0xc0000002 to merge binaries/Lab4_alloc_free.o (not found) and binaries/strncat.o (0x3)
Removed property 0xc0000002 to merge binaries/Lab4_alloc_free.o (not found) and binaries/strncmp.o (0x3)
Removed property 0xc0000002 to merge binaries/Lab4_alloc_free.o (not found) and binaries/strncpy.o (0x3)
Removed property 0xc0000002 to merge binaries/Lab4_alloc_free.o (not found) and binaries/strnlen.o (0x3)
Removed property 0xc0000002 to merge binaries/Lab4_alloc_free.o (not found) and binaries/strrchr.o (0x3)
Removed property 0xc0000002 to merge binaries/Lab4_alloc_free.o (not found) and binaries/strstr.o (0x3)
Removed property 0xc0000002 to merge binaries/Lab4_alloc_free.o (not found) and binaries/ttycontrol.o (0x3)
Removed property 0xc0000002 to merge binaries/Lab4_alloc_free.o (not found) and binaries/ttygetc.o (0x3)
Removed property 0xc0000002 to merge binaries/Lab4_alloc_free.o (not found) and binaries/ttyhandle_in.o (0x3)
Removed property 0xc0000002 to merge binaries/Lab4_alloc_free.o (not found) and binaries/ttyhandle_out.o (0x3)
Removed property 0xc0000002 to merge binaries/Lab4_alloc_free.o (not found) and binaries/ttyhandler.o (0x3)
Removed property 0xc0000002 to merge binaries/Lab4_alloc_free.o (not found) and binaries/ttyinit.o (0x3)
Removed property 0xc0000002 to merge binaries/Lab4_alloc_free.o (not found) and binaries/ttykickout.o (0x3)
Removed property 0xc0000002 to merge binaries/Lab4_alloc_free.o (not found) and binaries/ttyputc.o (0x3)
Removed property 0xc0000002 to merge binaries/Lab4_alloc_free.o (not found) and binaries/ttyread.o (0x3)
Removed property 0xc0000002 to merge binaries/Lab4_alloc_free.o (not found) and binaries/ttywrite.o (0x3)
Removed property 0xc0000002 to merge binaries/Lab4_alloc_free.o (not found) and binaries/mount.o (0x3)
Removed property 0xc0000002 to merge binaries/Lab4_alloc_free.o (not found) and binaries/naminit.o (0x3)
Removed property 0xc0000002 to merge binaries/Lab4_alloc_free.o (not found) and binaries/nammap.o (0x3)
Removed property 0xc0000002 to merge binaries/Lab4_alloc_free.o (not found) and binaries/namopen.o (0x3)
Removed property 0xc0000002 to merge binaries/Lab4_alloc_free.o (not found) and binaries/ramclose.o (0x3)
Removed property 0xc0000002 to merge binaries/Lab4_alloc_free.o (not found) and binaries/raminit.o (0x3)
Removed property 0xc0000002 to merge binaries/Lab4_alloc_free.o (not found) and binaries/ramopen.o (0x3)
Removed property 0xc0000002 to merge binaries/Lab4_alloc_free.o (not found) and binaries/ramread.o (0x3)
Removed property 0xc0000002 to merge binaries/Lab4_alloc_free.o (not found) and binaries/ramwrite.o (0x3)
Removed property 0xc0000002 to merge binaries/Lab4_alloc_free.o (not found) and binaries/lfdballoc.o (0x3)
Removed property 0xc0000002 to merge binaries/Lab4_alloc_free.o (not found) and binaries/lfdbfree.o (0x3)
Removed property 0xc0000002 to merge binaries/Lab4_alloc_free.o (not found) and binaries/lfflush.o (0x3)
Removed property 0xc0000002 to merge binaries/Lab4_alloc_free.o (not found) and binaries/lfgetmode.o (0x3)
Removed property 0xc0000002 to merge binaries/Lab4_alloc_free.o (not found) and binaries/lfiballoc.o (0x3)
Removed property 0xc0000002 to merge binaries/Lab4_alloc_free.o (not found) and binaries/lfibclear.o (0x3)
Removed property 0xc0000002 to merge binaries/Lab4_alloc_free.o (not found) and binaries/lfibget.o (0x3)
Removed property 0xc0000002 to merge binaries/Lab4_alloc_free.o (not found) and binaries/lfibput.o (0x3)
Removed property 0xc0000002 to merge binaries/Lab4_alloc_free.o (not found) and binaries/lflclose.o (0x3)
Removed property 0xc0000002 to merge binaries/Lab4_alloc_free.o (not found) and binaries/lflcontrol.o (0x3)
Removed property 0xc0000002 to merge binaries/Lab4_alloc_free.o (not found) and binaries/lflgetc.o (0x3)
Removed property 0xc0000002 to merge binaries/Lab4_alloc_free.o (not found) and binaries/lflinit.o (0x3)
Removed property 0xc0000002 to merge binaries/Lab4_alloc_free.o (not found) and binaries/lflputc.o (0x3)
Removed property 0xc0000002 to merge binaries/Lab4_alloc_free.o (not found) and binaries/lflread.o (0x3)
Removed property 0xc0000002 to merge binaries/Lab4_alloc_free.o (not found) and binaries/lflseek.o (0x3)
Removed property 0xc0000002 to merge binaries/Lab4_alloc_free.o (not found) and binaries/lflwrite.o (0x3)
Removed property 0xc0000002 to merge binaries/Lab4_alloc_free.o (not found) and binaries/lfscheck.o (0x3)
Removed property 0xc0000002 to merge binaries/Lab4_alloc_free.o (not found) and binaries/lfsckfmt.o (0x3)
Removed property 0xc0000002 to merge binaries/Lab4_alloc_free.o (not found) and binaries/lfscreate.o (0x3)
Removed property 0xc0000002 to merge binaries/Lab4_alloc_free.o (not found) and binaries/lfsetup.o (0x3)
Removed property 0xc0000002 to merge binaries/Lab4_alloc_free.o (not found) and binaries/lfsinit.o (0x3)
Removed property 0xc0000002 to merge binaries/Lab4_alloc_free.o (not found) and binaries/lfsopen.o (0x3)
Removed property 0xc0000002 to merge binaries/Lab4_alloc_free.o (not found) and binaries/lftruncate.o (0x3)
Removed property 0xc0000002 to merge binaries/Lab4_alloc_free.o (not found) and binaries/Lab5_vgacontrol.o (0x3)
Removed property 0xc0000002 to merge binaries/Lab4_alloc_free.o (not found) and binaries/Lab5_vgacursor.o (0x3)
Removed property 0xc0000002 to merge binaries/Lab4_alloc_free.o (not found) and binaries/Lab5_vgagetc.o (0x3)
Removed property 0xc0000002 to merge binaries/Lab4_alloc_free.o (not found) and binaries/Lab5_vgahandler.o (0x3)
Removed property 0xc0000002 to merge binaries/Lab4_alloc_free.o (not found) and binaries/Lab5_vgainit.o (0x3)
Removed property 0xc0000002 to merge binaries/Lab4_alloc_free.o (not found) and binaries/Lab5_vgaputc.o (0x3)
Removed property 0xc0000002 to merge binaries/Lab4_alloc_free.o (not found) and binaries/Lab5_vgaread.o (0x3)
Removed property 0xc0000002 to merge binaries/Lab4_alloc_free.o (not found) and binaries/Lab5_vgawrite.o (0x3)
Removed property 0xc0000002 to merge binaries/Lab4_alloc_free.o (not found) and binaries/Lab5_multiinit.o (0x3)
Removed property 0xc0000002 to merge binaries/Lab4_alloc_free.o (not found) and binaries/Lab5_multiputc.o (0x3)
Removed property 0xc0000002 to merge binaries/Lab4_alloc_free.o (not found) and binaries/Lab5_multiwrite.o (0x3)
Removed property 0xc0000002 to merge binaries/Lab4_alloc_free.o (not found) and binaries/disk.o (0x3)
Removed property 0xc0000002 to merge binaries/Lab4_alloc_free.o (not found) and binaries/diskflush.o (0x3)
Removed property 0xc0000002 to merge binaries/Lab4_alloc_free.o (not found) and binaries/diskgetc.o (0x3)
Removed property 0xc0000002 to merge binaries/Lab4_alloc_free.o (not found) and binaries/diskputc.o (0x3)
Removed property 0xc0000002 to merge binaries/Lab4_alloc_free.o (not found) and binaries/diskread.o (0x3)
Removed property 0xc0000002 to merge binaries/Lab4_alloc_free.o (not found) and binaries/diskseek.o (0x3)
Removed property 0xc0000002 to merge binaries/Lab4_alloc_free.o (not found) and binaries/diskwrite.o (0x3)
Removed property 0xc0000002 to merge binaries/Lab4_alloc_free.o (not found) and binaries/addargs.o (0x3)
Removed property 0xc0000002 to merge binaries/Lab4_alloc_free.o (not found) and binaries/lexan.o (0x3)
Removed property 0xc0000002 to merge binaries/Lab4_alloc_free.o (not found) and binaries/shell.o (0x3)
Removed property 0xc0000002 to merge binaries/Lab4_alloc_free.o (not found) and binaries/xsh_argecho.o (0x3)
Removed property 0xc0000002 to merge binaries/Lab4_alloc_free.o (not found) and binaries/xsh_cat.o (0x3)
Removed property 0xc0000002 to merge binaries/Lab4_alloc_free.o (not found) and binaries/xsh_clear.o (0x3)
Removed property 0xc0000002 to merge binaries/Lab4_alloc_free.o (not found) and binaries/xsh_date.o (0x3)
Removed property 0xc0000002 to merge binaries/Lab4_alloc_free.o (not found) and binaries/xsh_devdump.o (0x3)
Removed property 0xc0000002 to merge binaries/Lab4_alloc_free.o (not found) and binaries/xsh_echo.o (0x3)
Removed property 0xc0000002 to merge binaries/Lab4_alloc_free.o (not found) and binaries/xsh_exit.o (0x3)
Removed property 0xc0000002 to merge binaries/Lab4_alloc_free.o (not found) and binaries/xsh_help.o (0x3)
Removed property 0xc0000002 to merge binaries/Lab4_alloc_free.o (not found) and binaries/xsh_kill.o (0x3)
Removed property 0xc0000002 to merge binaries/Lab4_alloc_free.o (not found) and binaries/xsh_lab2.o (0x3)
Removed property 0xc0000002 to merge binaries/Lab4_alloc_free.o (not found) and binaries/xsh_lab3.o (0x3)
Removed property 0xc0000002 to merge binaries/Lab4_alloc_free.o (not found) and binaries/xsh_lab4.o (0x3)
Removed property 0xc0000002 to merge binaries/Lab4_alloc_free.o (not found) and binaries/xsh_lab5.o (0x3)
Removed property 0xc0000002 to merge binaries/Lab4_alloc_free.o (not found) and binaries/xsh_lab6.o (0x3)
Removed property 0xc0000002 to merge binaries/Lab4_alloc_free.o (not found) and binaries/xsh_memdump.o (0x3)
Removed property 0xc0000002 to merge binaries/Lab4_alloc_free.o (not found) and binaries/xsh_memstat.o (0x3)
Removed property 0xc0000002 to merge binaries/Lab4_alloc_free.o (not found) and binaries/xsh_ps.o (0x3)
Removed property 0xc0000002 to merge binaries/Lab4_alloc_free.o (not found) and binaries/xsh_sleep.o (0x3)
Removed property 0xc0000002 to merge binaries/Lab4_alloc_free.o (not found) and binaries/xsh_uptime.o (0x3)

Allocating common symbols
Common symbol       size              file

readylist           0x2               binaries/ready.o
sleepq              0x2               binaries/clkinit.o
nnames              0x4               binaries/naminit.o
minheap             0x4               binaries/vminit.o
marks               0x50              binaries/mark.o
currpid             0x4               binaries/initialize.o
Lf_data             0x20c             binaries/lfsinit.o
porttab             0x2d0             binaries/ptinit.o
girmask             0x2               binaries/evec.o
ttytab              0x110             binaries/ttyinit.o
proctab             0x1db0            binaries/initialize.o
prcount             0x4               binaries/initialize.o
TSS                 0x68              binaries/Lab4_alloc_free.o
lfltab              0xf00             binaries/lflinit.o
nmarks              0x4               binaries/mark.o
Defer               0x8               binaries/resched.o
semtab              0x4b0             binaries/initialize.o
maxheap             0x4               binaries/vminit.o
preempt             0x4               binaries/clkinit.o
buftab              0xf0              binaries/bufinit.o
disktab             0x20c             binaries/disk.o
kpg                 0x8               binaries/vminit.o
kbdcb               0x90              binaries/Lab5_vgainit.o
mkmutex             0x4               binaries/mark.o
count1000           0x4               binaries/clkinit.o
clktime             0x4               binaries/clkinit.o
nbpools             0x4               binaries/bufinit.o
queuetab            0x980             binaries/queue.o
ptnextid            0x4               binaries/ptinit.o
Ram                 0x19000           binaries/raminit.o
memlist             0x8               binaries/initialize.o
nametab             0x19a0            binaries/naminit.o
ptfree              0x4               binaries/ptinit.o
freelist            0x4               binaries/vminit.o

Discarded input sections

 .group         0x0000000000000000        0x8 binaries/Lab4_alloc_free.o
 .note.gnu.property
                0x0000000000000000       0x1c binaries/Lab4_alloc_free.o
 .group         0x0000000000000000        0x8 binaries/Lab4_do_stk_expend.o
 .text.__x86.get_pc_thunk.bx
                0x0000000000000000        0x4 binaries/Lab4_do_stk_expend.o
 .note.gnu.property
                0x0000000000000000       0x1c binaries/Lab4_do_stk_expend.o
 .group         0x0000000000000000        0x8 binaries/Lab4_fillpgentry.o
 .text.__x86.get_pc_thunk.bx
                0x0000000000000000        0x4 binaries/Lab4_fillpgentry.o
 .note.gnu.property
                0x0000000000000000       0x1c binaries/Lab4_fillpgentry.o
 .group         0x0000000000000000        0x8 binaries/Lab4_getheap.o
 .text.__x86.get_pc_thunk.bx
                0x0000000000000000        0x4 binaries/Lab4_getheap.o
 .note.gnu.property
                0x0000000000000000       0x1c binaries/Lab4_getheap.o
 .group         0x0000000000000000        0x8 binaries/Lab4_invlpg.o
 .note.gnu.property
                0x0000000000000000       0x1c binaries/Lab4_invlpg.o
 .group         0x0000000000000000        0x8 binaries/Lab4_log2ph.o
 .text.__x86.get_pc_thunk.bx
                0x0000000000000000        0x4 binaries/Lab4_log2ph.o
 .note.gnu.property
                0x0000000000000000       0x1c binaries/Lab4_log2ph.o
 .group         0x0000000000000000        0x8 binaries/Lab4_memlib.o
 .group         0x0000000000000000        0x8 binaries/Lab4_memlib.o
 .text.__x86.get_pc_thunk.ax
                0x0000000000000000        0x4 binaries/Lab4_memlib.o
 .text.__x86.get_pc_thunk.bx
                0x0000000000000000        0x4 binaries/Lab4_memlib.o
 .note.gnu.property
                0x0000000000000000       0x1c binaries/Lab4_memlib.o
 .group         0x0000000000000000        0x8 binaries/Lab4_memory_pools.o
 .group         0x0000000000000000        0x8 binaries/Lab4_memory_pools.o
 .text.__x86.get_pc_thunk.ax
                0x0000000000000000        0x4 binaries/Lab4_memory_pools.o
 .text.__x86.get_pc_thunk.bx
                0x0000000000000000        0x4 binaries/Lab4_memory_pools.o
 .note.gnu.property
                0x0000000000000000       0x1c binaries/Lab4_memory_pools.o
 .group         0x0000000000000000        0x8 binaries/ascdate.o
 .note.gnu.property
                0x0000000000000000       0x1c binaries/ascdate.o
 .group         0x0000000000000000        0x8 binaries/bufinit.o
 .text.__x86.get_pc_thunk.ax
                0x0000000000000000        0x4 binaries/bufinit.o
 .note.gnu.property
                0x0000000000000000       0x1c binaries/bufinit.o
 .group         0x0000000000000000        0x8 binaries/chprio.o
 .text.__x86.get_pc_thunk.bx
                0x0000000000000000        0x4 binaries/chprio.o
 .note.gnu.property
                0x0000000000000000       0x1c binaries/chprio.o
 .group         0x0000000000000000        0x8 binaries/clkhandler.o
 .text.__x86.get_pc_thunk.bx
                0x0000000000000000        0x4 binaries/clkhandler.o
 .note.gnu.property
                0x0000000000000000       0x1c binaries/clkhandler.o
 .group         0x0000000000000000        0x8 binaries/clkinit.o
 .text.__x86.get_pc_thunk.bx
                0x0000000000000000        0x4 binaries/clkinit.o
 .note.gnu.property
                0x0000000000000000       0x1c binaries/clkinit.o
 .group         0x0000000000000000        0x8 binaries/close.o
 .text.__x86.get_pc_thunk.bx
                0x0000000000000000        0x4 binaries/close.o
 .note.gnu.property
                0x0000000000000000       0x1c binaries/close.o
 .note.gnu.property
                0x0000000000000000       0x1c binaries/conf.o
 .group         0x0000000000000000        0x8 binaries/control.o
 .text.__x86.get_pc_thunk.bx
                0x0000000000000000        0x4 binaries/control.o
 .note.gnu.property
                0x0000000000000000       0x1c binaries/control.o
 .group         0x0000000000000000        0x8 binaries/create.o
 .group         0x0000000000000000        0x8 binaries/create.o
 .text.__x86.get_pc_thunk.cx
                0x0000000000000000        0x4 binaries/create.o
 .text.__x86.get_pc_thunk.bx
                0x0000000000000000        0x4 binaries/create.o
 .note.gnu.property
                0x0000000000000000       0x1c binaries/create.o
 .group         0x0000000000000000        0x8 binaries/evec.o
 .group         0x0000000000000000        0x8 binaries/evec.o
 .text.__x86.get_pc_thunk.ax
                0x0000000000000000        0x4 binaries/evec.o
 .text.__x86.get_pc_thunk.bx
                0x0000000000000000        0x4 binaries/evec.o
 .note.gnu.property
                0x0000000000000000       0x1c binaries/evec.o
 .group         0x0000000000000000        0x8 binaries/exit.o
 .text.__x86.get_pc_thunk.bx
                0x0000000000000000        0x4 binaries/exit.o
 .note.gnu.property
                0x0000000000000000       0x1c binaries/exit.o
 .group         0x0000000000000000        0x8 binaries/freebuf.o
 .text.__x86.get_pc_thunk.bx
                0x0000000000000000        0x4 binaries/freebuf.o
 .note.gnu.property
                0x0000000000000000       0x1c binaries/freebuf.o
 .group         0x0000000000000000        0x8 binaries/freemem.o
 .text.__x86.get_pc_thunk.bx
                0x0000000000000000        0x4 binaries/freemem.o
 .note.gnu.property
                0x0000000000000000       0x1c binaries/freemem.o
 .group         0x0000000000000000        0x8 binaries/getbuf.o
 .text.__x86.get_pc_thunk.bx
                0x0000000000000000        0x4 binaries/getbuf.o
 .note.gnu.property
                0x0000000000000000       0x1c binaries/getbuf.o
 .group         0x0000000000000000        0x8 binaries/getc.o
 .text.__x86.get_pc_thunk.bx
                0x0000000000000000        0x4 binaries/getc.o
 .note.gnu.property
                0x0000000000000000       0x1c binaries/getc.o
 .group         0x0000000000000000        0x8 binaries/getdev.o
 .text.__x86.get_pc_thunk.bx
                0x0000000000000000        0x4 binaries/getdev.o
 .note.gnu.property
                0x0000000000000000       0x1c binaries/getdev.o
 .group         0x0000000000000000        0x8 binaries/getitem.o
 .group         0x0000000000000000        0x8 binaries/getitem.o
 .text.__x86.get_pc_thunk.ax
                0x0000000000000000        0x4 binaries/getitem.o
 .note.gnu.property
                0x0000000000000000       0x1c binaries/getitem.o
 .group         0x0000000000000000        0x8 binaries/getmem.o
 .text.__x86.get_pc_thunk.bx
                0x0000000000000000        0x4 binaries/getmem.o
 .note.gnu.property
                0x0000000000000000       0x1c binaries/getmem.o
 .group         0x0000000000000000        0x8 binaries/getpid.o
 .text.__x86.get_pc_thunk.ax
                0x0000000000000000        0x4 binaries/getpid.o
 .note.gnu.property
                0x0000000000000000       0x1c binaries/getpid.o
 .group         0x0000000000000000        0x8 binaries/getprio.o
 .text.__x86.get_pc_thunk.bx
                0x0000000000000000        0x4 binaries/getprio.o
 .note.gnu.property
                0x0000000000000000       0x1c binaries/getprio.o
 .group         0x0000000000000000        0x8 binaries/getstk.o
 .text.__x86.get_pc_thunk.bx
                0x0000000000000000        0x4 binaries/getstk.o
 .note.gnu.property
                0x0000000000000000       0x1c binaries/getstk.o
 .group         0x0000000000000000        0x8 binaries/getticks.o
 .text.__x86.get_pc_thunk.ax
                0x0000000000000000        0x4 binaries/getticks.o
 .note.gnu.property
                0x0000000000000000       0x1c binaries/getticks.o
 .group         0x0000000000000000        0x8 binaries/gettime.o
 .text.__x86.get_pc_thunk.ax
                0x0000000000000000        0x4 binaries/gettime.o
 .note.gnu.property
                0x0000000000000000       0x1c binaries/gettime.o
 .group         0x0000000000000000        0x8 binaries/getutime.o
 .text.__x86.get_pc_thunk.ax
                0x0000000000000000        0x4 binaries/getutime.o
 .note.gnu.property
                0x0000000000000000       0x1c binaries/getutime.o
 .group         0x0000000000000000        0x8 binaries/init.o
 .text.__x86.get_pc_thunk.bx
                0x0000000000000000        0x4 binaries/init.o
 .note.gnu.property
                0x0000000000000000       0x1c binaries/init.o
 .group         0x0000000000000000        0x8 binaries/initialize.o
 .group         0x0000000000000000        0x8 binaries/initialize.o
 .text.__x86.get_pc_thunk.ax
                0x0000000000000000        0x4 binaries/initialize.o
 .text.__x86.get_pc_thunk.bx
                0x0000000000000000        0x4 binaries/initialize.o
 .note.gnu.property
                0x0000000000000000       0x1c binaries/initialize.o
 .group         0x0000000000000000        0x8 binaries/insert.o
 .text.__x86.get_pc_thunk.ax
                0x0000000000000000        0x4 binaries/insert.o
 .note.gnu.property
                0x0000000000000000       0x1c binaries/insert.o
 .group         0x0000000000000000        0x8 binaries/insertd.o
 .text.__x86.get_pc_thunk.ax
                0x0000000000000000        0x4 binaries/insertd.o
 .note.gnu.property
                0x0000000000000000       0x1c binaries/insertd.o
 .group         0x0000000000000000        0x8 binaries/ioerr.o
 .text.__x86.get_pc_thunk.ax
                0x0000000000000000        0x4 binaries/ioerr.o
 .note.gnu.property
                0x0000000000000000       0x1c binaries/ioerr.o
 .group         0x0000000000000000        0x8 binaries/ionull.o
 .text.__x86.get_pc_thunk.ax
                0x0000000000000000        0x4 binaries/ionull.o
 .note.gnu.property
                0x0000000000000000       0x1c binaries/ionull.o
 .group         0x0000000000000000        0x8 binaries/kill.o
 .text.__x86.get_pc_thunk.bx
                0x0000000000000000        0x4 binaries/kill.o
 .note.gnu.property
                0x0000000000000000       0x1c binaries/kill.o
 .group         0x0000000000000000        0x8 binaries/kprintf.o
 .group         0x0000000000000000        0x8 binaries/kprintf.o
 .text.__x86.get_pc_thunk.ax
                0x0000000000000000        0x4 binaries/kprintf.o
 .text.__x86.get_pc_thunk.bx
                0x0000000000000000        0x4 binaries/kprintf.o
 .note.gnu.property
                0x0000000000000000       0x1c binaries/kprintf.o
 .group         0x0000000000000000        0x8 binaries/main.o
 .text.__x86.get_pc_thunk.bx
                0x0000000000000000        0x4 binaries/main.o
 .note.gnu.property
                0x0000000000000000       0x1c binaries/main.o
 .group         0x0000000000000000        0x8 binaries/mark.o
 .text.__x86.get_pc_thunk.bx
                0x0000000000000000        0x4 binaries/mark.o
 .note.gnu.property
                0x0000000000000000       0x1c binaries/mark.o
 .group         0x0000000000000000        0x8 binaries/mkbufpool.o
 .text.__x86.get_pc_thunk.bx
                0x0000000000000000        0x4 binaries/mkbufpool.o
 .note.gnu.property
                0x0000000000000000       0x1c binaries/mkbufpool.o
 .group         0x0000000000000000        0x8 binaries/newqueue.o
 .text.__x86.get_pc_thunk.ax
                0x0000000000000000        0x4 binaries/newqueue.o
 .note.gnu.property
                0x0000000000000000       0x1c binaries/newqueue.o
 .group         0x0000000000000000        0x8 binaries/open.o
 .text.__x86.get_pc_thunk.bx
                0x0000000000000000        0x4 binaries/open.o
 .note.gnu.property
                0x0000000000000000       0x1c binaries/open.o
 .group         0x0000000000000000        0x8 binaries/panic.o
 .text.__x86.get_pc_thunk.bx
                0x0000000000000000        0x4 binaries/panic.o
 .note.gnu.property
                0x0000000000000000       0x1c binaries/panic.o
 .group         0x0000000000000000        0x8 binaries/platinit.o
 .text.__x86.get_pc_thunk.ax
                0x0000000000000000        0x4 binaries/platinit.o
 .note.gnu.property
                0x0000000000000000       0x1c binaries/platinit.o
 .group         0x0000000000000000        0x8 binaries/ptclear.o
 .text.__x86.get_pc_thunk.bx
                0x0000000000000000        0x4 binaries/ptclear.o
 .note.gnu.property
                0x0000000000000000       0x1c binaries/ptclear.o
 .group         0x0000000000000000        0x8 binaries/ptcount.o
 .text.__x86.get_pc_thunk.bx
                0x0000000000000000        0x4 binaries/ptcount.o
 .note.gnu.property
                0x0000000000000000       0x1c binaries/ptcount.o
 .group         0x0000000000000000        0x8 binaries/ptcreate.o
 .text.__x86.get_pc_thunk.bx
                0x0000000000000000        0x4 binaries/ptcreate.o
 .note.gnu.property
                0x0000000000000000       0x1c binaries/ptcreate.o
 .group         0x0000000000000000        0x8 binaries/ptdelete.o
 .text.__x86.get_pc_thunk.bx
                0x0000000000000000        0x4 binaries/ptdelete.o
 .note.gnu.property
                0x0000000000000000       0x1c binaries/ptdelete.o
 .group         0x0000000000000000        0x8 binaries/ptinit.o
 .text.__x86.get_pc_thunk.bx
                0x0000000000000000        0x4 binaries/ptinit.o
 .note.gnu.property
                0x0000000000000000       0x1c binaries/ptinit.o
 .group         0x0000000000000000        0x8 binaries/ptrecv.o
 .text.__x86.get_pc_thunk.bx
                0x0000000000000000        0x4 binaries/ptrecv.o
 .note.gnu.property
                0x0000000000000000       0x1c binaries/ptrecv.o
 .group         0x0000000000000000        0x8 binaries/ptreset.o
 .text.__x86.get_pc_thunk.bx
                0x0000000000000000        0x4 binaries/ptreset.o
 .note.gnu.property
                0x0000000000000000       0x1c binaries/ptreset.o
 .group         0x0000000000000000        0x8 binaries/ptsend.o
 .text.__x86.get_pc_thunk.bx
                0x0000000000000000        0x4 binaries/ptsend.o
 .note.gnu.property
                0x0000000000000000       0x1c binaries/ptsend.o
 .group         0x0000000000000000        0x8 binaries/putc.o
 .text.__x86.get_pc_thunk.bx
                0x0000000000000000        0x4 binaries/putc.o
 .note.gnu.property
                0x0000000000000000       0x1c binaries/putc.o
 .group         0x0000000000000000        0x8 binaries/queue.o
 .group         0x0000000000000000        0x8 binaries/queue.o
 .text.__x86.get_pc_thunk.dx
                0x0000000000000000        0x4 binaries/queue.o
 .text.__x86.get_pc_thunk.bx
                0x0000000000000000        0x4 binaries/queue.o
 .note.gnu.property
                0x0000000000000000       0x1c binaries/queue.o
 .group         0x0000000000000000        0x8 binaries/read.o
 .text.__x86.get_pc_thunk.bx
                0x0000000000000000        0x4 binaries/read.o
 .note.gnu.property
                0x0000000000000000       0x1c binaries/read.o
 .group         0x0000000000000000        0x8 binaries/ready.o
 .text.__x86.get_pc_thunk.bx
                0x0000000000000000        0x4 binaries/ready.o
 .note.gnu.property
                0x0000000000000000       0x1c binaries/ready.o
 .group         0x0000000000000000        0x8 binaries/receive.o
 .text.__x86.get_pc_thunk.bx
                0x0000000000000000        0x4 binaries/receive.o
 .note.gnu.property
                0x0000000000000000       0x1c binaries/receive.o
 .group         0x0000000000000000        0x8 binaries/recvclr.o
 .text.__x86.get_pc_thunk.bx
                0x0000000000000000        0x4 binaries/recvclr.o
 .note.gnu.property
                0x0000000000000000       0x1c binaries/recvclr.o
 .group         0x0000000000000000        0x8 binaries/recvtime.o
 .text.__x86.get_pc_thunk.bx
                0x0000000000000000        0x4 binaries/recvtime.o
 .note.gnu.property
                0x0000000000000000       0x1c binaries/recvtime.o
 .group         0x0000000000000000        0x8 binaries/resched.o
 .group         0x0000000000000000        0x8 binaries/resched.o
 .text.__x86.get_pc_thunk.ax
                0x0000000000000000        0x4 binaries/resched.o
 .text.__x86.get_pc_thunk.bx
                0x0000000000000000        0x4 binaries/resched.o
 .note.gnu.property
                0x0000000000000000       0x1c binaries/resched.o
 .group         0x0000000000000000        0x8 binaries/resume.o
 .text.__x86.get_pc_thunk.bx
                0x0000000000000000        0x4 binaries/resume.o
 .note.gnu.property
                0x0000000000000000       0x1c binaries/resume.o
 .group         0x0000000000000000        0x8 binaries/seek.o
 .text.__x86.get_pc_thunk.bx
                0x0000000000000000        0x4 binaries/seek.o
 .note.gnu.property
                0x0000000000000000       0x1c binaries/seek.o
 .group         0x0000000000000000        0x8 binaries/semcount.o
 .text.__x86.get_pc_thunk.bx
                0x0000000000000000        0x4 binaries/semcount.o
 .note.gnu.property
                0x0000000000000000       0x1c binaries/semcount.o
 .group         0x0000000000000000        0x8 binaries/semcreate.o
 .group         0x0000000000000000        0x8 binaries/semcreate.o
 .text.__x86.get_pc_thunk.ax
                0x0000000000000000        0x4 binaries/semcreate.o
 .text.__x86.get_pc_thunk.bx
                0x0000000000000000        0x4 binaries/semcreate.o
 .note.gnu.property
                0x0000000000000000       0x1c binaries/semcreate.o
 .group         0x0000000000000000        0x8 binaries/semdelete.o
 .text.__x86.get_pc_thunk.bx
                0x0000000000000000        0x4 binaries/semdelete.o
 .note.gnu.property
                0x0000000000000000       0x1c binaries/semdelete.o
 .group         0x0000000000000000        0x8 binaries/semreset.o
 .text.__x86.get_pc_thunk.bx
                0x0000000000000000        0x4 binaries/semreset.o
 .note.gnu.property
                0x0000000000000000       0x1c binaries/semreset.o
 .group         0x0000000000000000        0x8 binaries/send.o
 .text.__x86.get_pc_thunk.bx
                0x0000000000000000        0x4 binaries/send.o
 .note.gnu.property
                0x0000000000000000       0x1c binaries/send.o
 .group         0x0000000000000000        0x8 binaries/signal.o
 .text.__x86.get_pc_thunk.bx
                0x0000000000000000        0x4 binaries/signal.o
 .note.gnu.property
                0x0000000000000000       0x1c binaries/signal.o
 .group         0x0000000000000000        0x8 binaries/signaln.o
 .text.__x86.get_pc_thunk.bx
                0x0000000000000000        0x4 binaries/signaln.o
 .note.gnu.property
                0x0000000000000000       0x1c binaries/signaln.o
 .group         0x0000000000000000        0x8 binaries/sleep.o
 .group         0x0000000000000000        0x8 binaries/sleep.o
 .text.__x86.get_pc_thunk.ax
                0x0000000000000000        0x4 binaries/sleep.o
 .text.__x86.get_pc_thunk.bx
                0x0000000000000000        0x4 binaries/sleep.o
 .note.gnu.property
                0x0000000000000000       0x1c binaries/sleep.o
 .group         0x0000000000000000        0x8 binaries/stacktrace.o
 .text.__x86.get_pc_thunk.bx
                0x0000000000000000        0x4 binaries/stacktrace.o
 .note.gnu.property
                0x0000000000000000       0x1c binaries/stacktrace.o
 .group         0x0000000000000000        0x8 binaries/suspend.o
 .text.__x86.get_pc_thunk.bx
                0x0000000000000000        0x4 binaries/suspend.o
 .note.gnu.property
                0x0000000000000000       0x1c binaries/suspend.o
 .group         0x0000000000000000        0x8 binaries/unsleep.o
 .text.__x86.get_pc_thunk.bx
                0x0000000000000000        0x4 binaries/unsleep.o
 .note.gnu.property
                0x0000000000000000       0x1c binaries/unsleep.o
 .group         0x0000000000000000        0x8 binaries/userret.o
 .text.__x86.get_pc_thunk.bx
                0x0000000000000000        0x4 binaries/userret.o
 .note.gnu.property
                0x0000000000000000       0x1c binaries/userret.o
 .group         0x0000000000000000        0x8 binaries/vminit.o
 .group         0x0000000000000000        0x8 binaries/vminit.o
 .text.__x86.get_pc_thunk.ax
                0x0000000000000000        0x4 binaries/vminit.o
 .text.__x86.get_pc_thunk.bx
                0x0000000000000000        0x4 binaries/vminit.o
 .note.gnu.property
                0x0000000000000000       0x1c binaries/vminit.o
 .group         0x0000000000000000        0x8 binaries/wait.o
 .text.__x86.get_pc_thunk.bx
                0x0000000000000000        0x4 binaries/wait.o
 .note.gnu.property
                0x0000000000000000       0x1c binaries/wait.o
 .group         0x0000000000000000        0x8 binaries/wakeup.o
 .text.__x86.get_pc_thunk.bx
                0x0000000000000000        0x4 binaries/wakeup.o
 .note.gnu.property
                0x0000000000000000       0x1c binaries/wakeup.o
 .group         0x0000000000000000        0x8 binaries/write.o
 .text.__x86.get_pc_thunk.bx
                0x0000000000000000        0x4 binaries/write.o
 .note.gnu.property
                0x0000000000000000       0x1c binaries/write.o
 .group         0x0000000000000000        0x8 binaries/xdone.o
 .text.__x86.get_pc_thunk.bx
                0x0000000000000000        0x4 binaries/xdone.o
 .note.gnu.property
                0x0000000000000000       0x1c binaries/xdone.o
 .group         0x0000000000000000        0x8 binaries/yield.o
 .text.__x86.get_pc_thunk.bx
                0x0000000000000000        0x4 binaries/yield.o
 .note.gnu.property
                0x0000000000000000       0x1c binaries/yield.o
 .group         0x0000000000000000        0x8 binaries/abs.o
 .text.__x86.get_pc_thunk.ax
                0x0000000000000000        0x4 binaries/abs.o
 .note.gnu.property
                0x0000000000000000       0x1c binaries/abs.o
 .group         0x0000000000000000        0x8 binaries/atoi.o
 .text.__x86.get_pc_thunk.ax
                0x0000000000000000        0x4 binaries/atoi.o
 .note.gnu.property
                0x0000000000000000       0x1c binaries/atoi.o
 .group         0x0000000000000000        0x8 binaries/atol.o
 .text.__x86.get_pc_thunk.ax
                0x0000000000000000        0x4 binaries/atol.o
 .note.gnu.property
                0x0000000000000000       0x1c binaries/atol.o
 .group         0x0000000000000000        0x8 binaries/bzero.o
 .text.__x86.get_pc_thunk.ax
                0x0000000000000000        0x4 binaries/bzero.o
 .note.gnu.property
                0x0000000000000000       0x1c binaries/bzero.o
 .note.gnu.property
                0x0000000000000000       0x1c binaries/ctype_.o
 .group         0x0000000000000000        0x8 binaries/doprnt.o
 .group         0x0000000000000000        0x8 binaries/doprnt.o
 .group         0x0000000000000000        0x8 binaries/doprnt.o
 .text.__x86.get_pc_thunk.ax
                0x0000000000000000        0x4 binaries/doprnt.o
 .text.__x86.get_pc_thunk.dx
                0x0000000000000000        0x4 binaries/doprnt.o
 .text.__x86.get_pc_thunk.bx
                0x0000000000000000        0x4 binaries/doprnt.o
 .note.gnu.property
                0x0000000000000000       0x1c binaries/doprnt.o
 .group         0x0000000000000000        0x8 binaries/doscan.o
 .group         0x0000000000000000        0x8 binaries/doscan.o
 .text.__x86.get_pc_thunk.ax
                0x0000000000000000        0x4 binaries/doscan.o
 .note.gnu.property
                0x0000000000000000       0x1c binaries/doscan.o
 .group         0x0000000000000000        0x8 binaries/fdoprnt.o
 .group         0x0000000000000000        0x8 binaries/fdoprnt.o
 .text.__x86.get_pc_thunk.ax
                0x0000000000000000        0x4 binaries/fdoprnt.o
 .text.__x86.get_pc_thunk.bx
                0x0000000000000000        0x4 binaries/fdoprnt.o
 .note.gnu.property
                0x0000000000000000       0x1c binaries/fdoprnt.o
 .group         0x0000000000000000        0x8 binaries/fgetc.o
 .text.__x86.get_pc_thunk.ax
                0x0000000000000000        0x4 binaries/fgetc.o
 .note.gnu.property
                0x0000000000000000       0x1c binaries/fgetc.o
 .group         0x0000000000000000        0x8 binaries/fgets.o
 .text.__x86.get_pc_thunk.bx
                0x0000000000000000        0x4 binaries/fgets.o
 .note.gnu.property
                0x0000000000000000       0x1c binaries/fgets.o
 .group         0x0000000000000000        0x8 binaries/fprintf.o
 .text.__x86.get_pc_thunk.ax
                0x0000000000000000        0x4 binaries/fprintf.o
 .note.gnu.property
                0x0000000000000000       0x1c binaries/fprintf.o
 .group         0x0000000000000000        0x8 binaries/fputc.o
 .text.__x86.get_pc_thunk.ax
                0x0000000000000000        0x4 binaries/fputc.o
 .note.gnu.property
                0x0000000000000000       0x1c binaries/fputc.o
 .group         0x0000000000000000        0x8 binaries/fputs.o
 .text.__x86.get_pc_thunk.bx
                0x0000000000000000        0x4 binaries/fputs.o
 .note.gnu.property
                0x0000000000000000       0x1c binaries/fputs.o
 .group         0x0000000000000000        0x8 binaries/fscanf.o
 .text.__x86.get_pc_thunk.ax
                0x0000000000000000        0x4 binaries/fscanf.o
 .note.gnu.property
                0x0000000000000000       0x1c binaries/fscanf.o
 .group         0x0000000000000000        0x8 binaries/getchar.o
 .text.__x86.get_pc_thunk.dx
                0x0000000000000000        0x4 binaries/getchar.o
 .note.gnu.property
                0x0000000000000000       0x1c binaries/getchar.o
 .group         0x0000000000000000        0x8 binaries/labs.o
 .text.__x86.get_pc_thunk.ax
                0x0000000000000000        0x4 binaries/labs.o
 .note.gnu.property
                0x0000000000000000       0x1c binaries/labs.o
 .note.gnu.property
                0x0000000000000000       0x1c binaries/memchr.o
 .group         0x0000000000000000        0x8 binaries/memcmp.o
 .text.__x86.get_pc_thunk.ax
                0x0000000000000000        0x4 binaries/memcmp.o
 .note.gnu.property
                0x0000000000000000       0x1c binaries/memcmp.o
 .group         0x0000000000000000        0x8 binaries/memcpy.o
 .text.__x86.get_pc_thunk.ax
                0x0000000000000000        0x4 binaries/memcpy.o
 .note.gnu.property
                0x0000000000000000       0x1c binaries/memcpy.o
 .group         0x0000000000000000        0x8 binaries/memset.o
 .text.__x86.get_pc_thunk.ax
                0x0000000000000000        0x4 binaries/memset.o
 .note.gnu.property
                0x0000000000000000       0x1c binaries/memset.o
 .group         0x0000000000000000        0x8 binaries/printf.o
 .text.__x86.get_pc_thunk.dx
                0x0000000000000000        0x4 binaries/printf.o
 .note.gnu.property
                0x0000000000000000       0x1c binaries/printf.o
 .group         0x0000000000000000        0x8 binaries/putchar.o
 .text.__x86.get_pc_thunk.dx
                0x0000000000000000        0x4 binaries/putchar.o
 .note.gnu.property
                0x0000000000000000       0x1c binaries/putchar.o
 .group         0x0000000000000000        0x8 binaries/qsort.o
 .text.__x86.get_pc_thunk.ax
                0x0000000000000000        0x4 binaries/qsort.o
 .note.gnu.property
                0x0000000000000000       0x1c binaries/qsort.o
 .group         0x0000000000000000        0x8 binaries/rand.o
 .text.__x86.get_pc_thunk.ax
                0x0000000000000000        0x4 binaries/rand.o
 .note.gnu.property
                0x0000000000000000       0x1c binaries/rand.o
 .group         0x0000000000000000        0x8 binaries/sprintf.o
 .text.__x86.get_pc_thunk.ax
                0x0000000000000000        0x4 binaries/sprintf.o
 .note.gnu.property
                0x0000000000000000       0x1c binaries/sprintf.o
 .group         0x0000000000000000        0x8 binaries/sscanf.o
 .text.__x86.get_pc_thunk.ax
                0x0000000000000000        0x4 binaries/sscanf.o
 .note.gnu.property
                0x0000000000000000       0x1c binaries/sscanf.o
 .group         0x0000000000000000        0x8 binaries/strchr.o
 .text.__x86.get_pc_thunk.ax
                0x0000000000000000        0x4 binaries/strchr.o
 .note.gnu.property
                0x0000000000000000       0x1c binaries/strchr.o
 .group         0x0000000000000000        0x8 binaries/strcmp.o
 .text.__x86.get_pc_thunk.ax
                0x0000000000000000        0x4 binaries/strcmp.o
 .note.gnu.property
                0x0000000000000000       0x1c binaries/strcmp.o
 .group         0x0000000000000000        0x8 binaries/strcpy.o
 .text.__x86.get_pc_thunk.ax
                0x0000000000000000        0x4 binaries/strcpy.o
 .note.gnu.property
                0x0000000000000000       0x1c binaries/strcpy.o
 .group         0x0000000000000000        0x8 binaries/strlen.o
 .text.__x86.get_pc_thunk.ax
                0x0000000000000000        0x4 binaries/strlen.o
 .note.gnu.property
                0x0000000000000000       0x1c binaries/strlen.o
 .group         0x0000000000000000        0x8 binaries/strncat.o
 .text.__x86.get_pc_thunk.ax
                0x0000000000000000        0x4 binaries/strncat.o
 .note.gnu.property
                0x0000000000000000       0x1c binaries/strncat.o
 .group         0x0000000000000000        0x8 binaries/strncmp.o
 .text.__x86.get_pc_thunk.ax
                0x0000000000000000        0x4 binaries/strncmp.o
 .note.gnu.property
                0x0000000000000000       0x1c binaries/strncmp.o
 .group         0x0000000000000000        0x8 binaries/strncpy.o
 .text.__x86.get_pc_thunk.ax
                0x0000000000000000        0x4 binaries/strncpy.o
 .note.gnu.property
                0x0000000000000000       0x1c binaries/strncpy.o
 .group         0x0000000000000000        0x8 binaries/strnlen.o
 .text.__x86.get_pc_thunk.ax
                0x0000000000000000        0x4 binaries/strnlen.o
 .note.gnu.property
                0x0000000000000000       0x1c binaries/strnlen.o
 .group         0x0000000000000000        0x8 binaries/strrchr.o
 .text.__x86.get_pc_thunk.ax
                0x0000000000000000        0x4 binaries/strrchr.o
 .note.gnu.property
                0x0000000000000000       0x1c binaries/strrchr.o
 .group         0x0000000000000000        0x8 binaries/strstr.o
 .text.__x86.get_pc_thunk.ax
                0x0000000000000000        0x4 binaries/strstr.o
 .note.gnu.property
                0x0000000000000000       0x1c binaries/strstr.o
 .group         0x0000000000000000        0x8 binaries/ttycontrol.o
 .text.__x86.get_pc_thunk.bx
                0x0000000000000000        0x4 binaries/ttycontrol.o
 .note.gnu.property
                0x0000000000000000       0x1c binaries/ttycontrol.o
 .group         0x0000000000000000        0x8 binaries/ttygetc.o
 .text.__x86.get_pc_thunk.dx
                0x0000000000000000        0x4 binaries/ttygetc.o
 .note.gnu.property
                0x0000000000000000       0x1c binaries/ttygetc.o
 .group         0x0000000000000000        0x8 binaries/ttyhandle_in.o
 .group         0x0000000000000000        0x8 binaries/ttyhandle_in.o
 .group         0x0000000000000000        0x8 binaries/ttyhandle_in.o
 .text.__x86.get_pc_thunk.ax
                0x0000000000000000        0x4 binaries/ttyhandle_in.o
 .text.__x86.get_pc_thunk.dx
                0x0000000000000000        0x4 binaries/ttyhandle_in.o
 .text.__x86.get_pc_thunk.bx
                0x0000000000000000        0x4 binaries/ttyhandle_in.o
 .note.gnu.property
                0x0000000000000000       0x1c binaries/ttyhandle_in.o
 .group         0x0000000000000000        0x8 binaries/ttyhandle_out.o
 .text.__x86.get_pc_thunk.bx
                0x0000000000000000        0x4 binaries/ttyhandle_out.o
 .note.gnu.property
                0x0000000000000000       0x1c binaries/ttyhandle_out.o
 .group         0x0000000000000000        0x8 binaries/ttyhandler.o
 .text.__x86.get_pc_thunk.bx
                0x0000000000000000        0x4 binaries/ttyhandler.o
 .note.gnu.property
                0x0000000000000000       0x1c binaries/ttyhandler.o
 .group         0x0000000000000000        0x8 binaries/ttyinit.o
 .text.__x86.get_pc_thunk.bx
                0x0000000000000000        0x4 binaries/ttyinit.o
 .note.gnu.property
                0x0000000000000000       0x1c binaries/ttyinit.o
 .group         0x0000000000000000        0x8 binaries/ttykickout.o
 .text.__x86.get_pc_thunk.ax
                0x0000000000000000        0x4 binaries/ttykickout.o
 .note.gnu.property
                0x0000000000000000       0x1c binaries/ttykickout.o
 .group         0x0000000000000000        0x8 binaries/ttyputc.o
 .text.__x86.get_pc_thunk.bx
                0x0000000000000000        0x4 binaries/ttyputc.o
 .note.gnu.property
                0x0000000000000000       0x1c binaries/ttyputc.o
 .group         0x0000000000000000        0x8 binaries/ttyread.o
 .text.__x86.get_pc_thunk.bx
                0x0000000000000000        0x4 binaries/ttyread.o
 .note.gnu.property
                0x0000000000000000       0x1c binaries/ttyread.o
 .group         0x0000000000000000        0x8 binaries/ttywrite.o
 .text.__x86.get_pc_thunk.bx
                0x0000000000000000        0x4 binaries/ttywrite.o
 .note.gnu.property
                0x0000000000000000       0x1c binaries/ttywrite.o
 .group         0x0000000000000000        0x8 binaries/mount.o
 .group         0x0000000000000000        0x8 binaries/mount.o
 .text.__x86.get_pc_thunk.ax
                0x0000000000000000        0x4 binaries/mount.o
 .text.__x86.get_pc_thunk.bx
                0x0000000000000000        0x4 binaries/mount.o
 .note.gnu.property
                0x0000000000000000       0x1c binaries/mount.o
 .group         0x0000000000000000        0x8 binaries/naminit.o
 .text.__x86.get_pc_thunk.bx
                0x0000000000000000        0x4 binaries/naminit.o
 .note.gnu.property
                0x0000000000000000       0x1c binaries/naminit.o
 .group         0x0000000000000000        0x8 binaries/nammap.o
 .group         0x0000000000000000        0x8 binaries/nammap.o
 .text.__x86.get_pc_thunk.ax
                0x0000000000000000        0x4 binaries/nammap.o
 .text.__x86.get_pc_thunk.bx
                0x0000000000000000        0x4 binaries/nammap.o
 .note.gnu.property
                0x0000000000000000       0x1c binaries/nammap.o
 .group         0x0000000000000000        0x8 binaries/namopen.o
 .text.__x86.get_pc_thunk.bx
                0x0000000000000000        0x4 binaries/namopen.o
 .note.gnu.property
                0x0000000000000000       0x1c binaries/namopen.o
 .group         0x0000000000000000        0x8 binaries/ramclose.o
 .text.__x86.get_pc_thunk.ax
                0x0000000000000000        0x4 binaries/ramclose.o
 .note.gnu.property
                0x0000000000000000       0x1c binaries/ramclose.o
 .group         0x0000000000000000        0x8 binaries/raminit.o
 .text.__x86.get_pc_thunk.bx
                0x0000000000000000        0x4 binaries/raminit.o
 .note.gnu.property
                0x0000000000000000       0x1c binaries/raminit.o
 .group         0x0000000000000000        0x8 binaries/ramopen.o
 .text.__x86.get_pc_thunk.ax
                0x0000000000000000        0x4 binaries/ramopen.o
 .note.gnu.property
                0x0000000000000000       0x1c binaries/ramopen.o
 .group         0x0000000000000000        0x8 binaries/ramread.o
 .text.__x86.get_pc_thunk.ax
                0x0000000000000000        0x4 binaries/ramread.o
 .note.gnu.property
                0x0000000000000000       0x1c binaries/ramread.o
 .group         0x0000000000000000        0x8 binaries/ramwrite.o
 .text.__x86.get_pc_thunk.ax
                0x0000000000000000        0x4 binaries/ramwrite.o
 .note.gnu.property
                0x0000000000000000       0x1c binaries/ramwrite.o
 .group         0x0000000000000000        0x8 binaries/lfdballoc.o
 .text.__x86.get_pc_thunk.bx
                0x0000000000000000        0x4 binaries/lfdballoc.o
 .note.gnu.property
                0x0000000000000000       0x1c binaries/lfdballoc.o
 .group         0x0000000000000000        0x8 binaries/lfdbfree.o
 .text.__x86.get_pc_thunk.bx
                0x0000000000000000        0x4 binaries/lfdbfree.o
 .note.gnu.property
                0x0000000000000000       0x1c binaries/lfdbfree.o
 .group         0x0000000000000000        0x8 binaries/lfflush.o
 .text.__x86.get_pc_thunk.bx
                0x0000000000000000        0x4 binaries/lfflush.o
 .note.gnu.property
                0x0000000000000000       0x1c binaries/lfflush.o
 .group         0x0000000000000000        0x8 binaries/lfgetmode.o
 .text.__x86.get_pc_thunk.ax
                0x0000000000000000        0x4 binaries/lfgetmode.o
 .note.gnu.property
                0x0000000000000000       0x1c binaries/lfgetmode.o
 .group         0x0000000000000000        0x8 binaries/lfiballoc.o
 .text.__x86.get_pc_thunk.bx
                0x0000000000000000        0x4 binaries/lfiballoc.o
 .note.gnu.property
                0x0000000000000000       0x1c binaries/lfiballoc.o
 .group         0x0000000000000000        0x8 binaries/lfibclear.o
 .text.__x86.get_pc_thunk.ax
                0x0000000000000000        0x4 binaries/lfibclear.o
 .note.gnu.property
                0x0000000000000000       0x1c binaries/lfibclear.o
 .group         0x0000000000000000        0x8 binaries/lfibget.o
 .text.__x86.get_pc_thunk.bx
                0x0000000000000000        0x4 binaries/lfibget.o
 .note.gnu.property
                0x0000000000000000       0x1c binaries/lfibget.o
 .group         0x0000000000000000        0x8 binaries/lfibput.o
 .text.__x86.get_pc_thunk.bx
                0x0000000000000000        0x4 binaries/lfibput.o
 .note.gnu.property
                0x0000000000000000       0x1c binaries/lfibput.o
 .group         0x0000000000000000        0x8 binaries/lflclose.o
 .text.__x86.get_pc_thunk.bx
                0x0000000000000000        0x4 binaries/lflclose.o
 .note.gnu.property
                0x0000000000000000       0x1c binaries/lflclose.o
 .group         0x0000000000000000        0x8 binaries/lflcontrol.o
 .text.__x86.get_pc_thunk.bx
                0x0000000000000000        0x4 binaries/lflcontrol.o
 .note.gnu.property
                0x0000000000000000       0x1c binaries/lflcontrol.o
 .group         0x0000000000000000        0x8 binaries/lflgetc.o
 .text.__x86.get_pc_thunk.bx
                0x0000000000000000        0x4 binaries/lflgetc.o
 .note.gnu.property
                0x0000000000000000       0x1c binaries/lflgetc.o
 .group         0x0000000000000000        0x8 binaries/lflinit.o
 .text.__x86.get_pc_thunk.bx
                0x0000000000000000        0x4 binaries/lflinit.o
 .note.gnu.property
                0x0000000000000000       0x1c binaries/lflinit.o
 .group         0x0000000000000000        0x8 binaries/lflputc.o
 .text.__x86.get_pc_thunk.bx
                0x0000000000000000        0x4 binaries/lflputc.o
 .note.gnu.property
                0x0000000000000000       0x1c binaries/lflputc.o
 .group         0x0000000000000000        0x8 binaries/lflread.o
 .text.__x86.get_pc_thunk.bx
                0x0000000000000000        0x4 binaries/lflread.o
 .note.gnu.property
                0x0000000000000000       0x1c binaries/lflread.o
 .group         0x0000000000000000        0x8 binaries/lflseek.o
 .text.__x86.get_pc_thunk.bx
                0x0000000000000000        0x4 binaries/lflseek.o
 .note.gnu.property
                0x0000000000000000       0x1c binaries/lflseek.o
 .group         0x0000000000000000        0x8 binaries/lflwrite.o
 .text.__x86.get_pc_thunk.bx
                0x0000000000000000        0x4 binaries/lflwrite.o
 .note.gnu.property
                0x0000000000000000       0x1c binaries/lflwrite.o
 .group         0x0000000000000000        0x8 binaries/lfscheck.o
 .text.__x86.get_pc_thunk.ax
                0x0000000000000000        0x4 binaries/lfscheck.o
 .note.gnu.property
                0x0000000000000000       0x1c binaries/lfscheck.o
 .group         0x0000000000000000        0x8 binaries/lfsckfmt.o
 .text.__x86.get_pc_thunk.bx
                0x0000000000000000        0x4 binaries/lfsckfmt.o
 .note.gnu.property
                0x0000000000000000       0x1c binaries/lfsckfmt.o
 .group         0x0000000000000000        0x8 binaries/lfscreate.o
 .text.__x86.get_pc_thunk.bx
                0x0000000000000000        0x4 binaries/lfscreate.o
 .note.gnu.property
                0x0000000000000000       0x1c binaries/lfscreate.o
 .group         0x0000000000000000        0x8 binaries/lfsetup.o
 .text.__x86.get_pc_thunk.bx
                0x0000000000000000        0x4 binaries/lfsetup.o
 .note.gnu.property
                0x0000000000000000       0x1c binaries/lfsetup.o
 .group         0x0000000000000000        0x8 binaries/lfsinit.o
 .text.__x86.get_pc_thunk.bx
                0x0000000000000000        0x4 binaries/lfsinit.o
 .note.gnu.property
                0x0000000000000000       0x1c binaries/lfsinit.o
 .group         0x0000000000000000        0x8 binaries/lfsopen.o
 .text.__x86.get_pc_thunk.bx
                0x0000000000000000        0x4 binaries/lfsopen.o
 .note.gnu.property
                0x0000000000000000       0x1c binaries/lfsopen.o
 .group         0x0000000000000000        0x8 binaries/lftruncate.o
 .text.__x86.get_pc_thunk.bx
                0x0000000000000000        0x4 binaries/lftruncate.o
 .note.gnu.property
                0x0000000000000000       0x1c binaries/lftruncate.o
 .group         0x0000000000000000        0x8 binaries/Lab5_vgacontrol.o
 .group         0x0000000000000000        0x8 binaries/Lab5_vgacontrol.o
 .text.__x86.get_pc_thunk.ax
                0x0000000000000000        0x4 binaries/Lab5_vgacontrol.o
 .text.__x86.get_pc_thunk.bx
                0x0000000000000000        0x4 binaries/Lab5_vgacontrol.o
 .note.gnu.property
                0x0000000000000000       0x1c binaries/Lab5_vgacontrol.o
 .group         0x0000000000000000        0x8 binaries/Lab5_vgacursor.o
 .group         0x0000000000000000        0x8 binaries/Lab5_vgacursor.o
 .text.__x86.get_pc_thunk.ax
                0x0000000000000000        0x4 binaries/Lab5_vgacursor.o
 .text.__x86.get_pc_thunk.bx
                0x0000000000000000        0x4 binaries/Lab5_vgacursor.o
 .note.gnu.property
                0x0000000000000000       0x1c binaries/Lab5_vgacursor.o
 .group         0x0000000000000000        0x8 binaries/Lab5_vgagetc.o
 .text.__x86.get_pc_thunk.bx
                0x0000000000000000        0x4 binaries/Lab5_vgagetc.o
 .note.gnu.property
                0x0000000000000000       0x1c binaries/Lab5_vgagetc.o
 .group         0x0000000000000000        0x8 binaries/Lab5_vgahandler.o
 .text.__x86.get_pc_thunk.bx
                0x0000000000000000        0x4 binaries/Lab5_vgahandler.o
 .note.gnu.property
                0x0000000000000000       0x1c binaries/Lab5_vgahandler.o
 .group         0x0000000000000000        0x8 binaries/Lab5_vgainit.o
 .text.__x86.get_pc_thunk.bx
                0x0000000000000000        0x4 binaries/Lab5_vgainit.o
 .note.gnu.property
                0x0000000000000000       0x1c binaries/Lab5_vgainit.o
 .group         0x0000000000000000        0x8 binaries/Lab5_vgaputc.o
 .text.__x86.get_pc_thunk.bx
                0x0000000000000000        0x4 binaries/Lab5_vgaputc.o
 .note.gnu.property
                0x0000000000000000       0x1c binaries/Lab5_vgaputc.o
 .group         0x0000000000000000        0x8 binaries/Lab5_vgaread.o
 .text.__x86.get_pc_thunk.bx
                0x0000000000000000        0x4 binaries/Lab5_vgaread.o
 .note.gnu.property
                0x0000000000000000       0x1c binaries/Lab5_vgaread.o
 .group         0x0000000000000000        0x8 binaries/Lab5_vgawrite.o
 .text.__x86.get_pc_thunk.bx
                0x0000000000000000        0x4 binaries/Lab5_vgawrite.o
 .note.gnu.property
                0x0000000000000000       0x1c binaries/Lab5_vgawrite.o
 .group         0x0000000000000000        0x8 binaries/Lab5_multiinit.o
 .text.__x86.get_pc_thunk.bx
                0x0000000000000000        0x4 binaries/Lab5_multiinit.o
 .note.gnu.property
                0x0000000000000000       0x1c binaries/Lab5_multiinit.o
 .group         0x0000000000000000        0x8 binaries/Lab5_multiputc.o
 .text.__x86.get_pc_thunk.bx
                0x0000000000000000        0x4 binaries/Lab5_multiputc.o
 .note.gnu.property
                0x0000000000000000       0x1c binaries/Lab5_multiputc.o
 .group         0x0000000000000000        0x8 binaries/Lab5_multiwrite.o
 .text.__x86.get_pc_thunk.bx
                0x0000000000000000        0x4 binaries/Lab5_multiwrite.o
 .note.gnu.property
                0x0000000000000000       0x1c binaries/Lab5_multiwrite.o
 .group         0x0000000000000000        0x8 binaries/disk.o
 .text.__x86.get_pc_thunk.dx
                0x0000000000000000        0x4 binaries/disk.o
 .note.gnu.property
                0x0000000000000000       0x1c binaries/disk.o
 .group         0x0000000000000000        0x8 binaries/diskflush.o
 .text.__x86.get_pc_thunk.bx
                0x0000000000000000        0x4 binaries/diskflush.o
 .note.gnu.property
                0x0000000000000000       0x1c binaries/diskflush.o
 .group         0x0000000000000000        0x8 binaries/diskgetc.o
 .text.__x86.get_pc_thunk.bx
                0x0000000000000000        0x4 binaries/diskgetc.o
 .note.gnu.property
                0x0000000000000000       0x1c binaries/diskgetc.o
 .group         0x0000000000000000        0x8 binaries/diskputc.o
 .text.__x86.get_pc_thunk.bx
                0x0000000000000000        0x4 binaries/diskputc.o
 .note.gnu.property
                0x0000000000000000       0x1c binaries/diskputc.o
 .group         0x0000000000000000        0x8 binaries/diskread.o
 .text.__x86.get_pc_thunk.bx
                0x0000000000000000        0x4 binaries/diskread.o
 .note.gnu.property
                0x0000000000000000       0x1c binaries/diskread.o
 .group         0x0000000000000000        0x8 binaries/diskseek.o
 .text.__x86.get_pc_thunk.cx
                0x0000000000000000        0x4 binaries/diskseek.o
 .note.gnu.property
                0x0000000000000000       0x1c binaries/diskseek.o
 .group         0x0000000000000000        0x8 binaries/diskwrite.o
 .text.__x86.get_pc_thunk.bx
                0x0000000000000000        0x4 binaries/diskwrite.o
 .note.gnu.property
                0x0000000000000000       0x1c binaries/diskwrite.o
 .group         0x0000000000000000        0x8 binaries/addargs.o
 .group         0x0000000000000000        0x8 binaries/addargs.o
 .text.__x86.get_pc_thunk.dx
                0x0000000000000000        0x4 binaries/addargs.o
 .text.__x86.get_pc_thunk.bx
                0x0000000000000000        0x4 binaries/addargs.o
 .note.gnu.property
                0x0000000000000000       0x1c binaries/addargs.o
 .group         0x0000000000000000        0x8 binaries/lexan.o
 .text.__x86.get_pc_thunk.ax
                0x0000000000000000        0x4 binaries/lexan.o
 .note.gnu.property
                0x0000000000000000       0x1c binaries/lexan.o
 .group         0x0000000000000000        0x8 binaries/shell.o
 .text.__x86.get_pc_thunk.bx
                0x0000000000000000        0x4 binaries/shell.o
 .note.gnu.property
                0x0000000000000000       0x1c binaries/shell.o
 .group         0x0000000000000000        0x8 binaries/xsh_argecho.o
 .text.__x86.get_pc_thunk.bx
                0x0000000000000000        0x4 binaries/xsh_argecho.o
 .note.gnu.property
                0x0000000000000000       0x1c binaries/xsh_argecho.o
 .group         0x0000000000000000        0x8 binaries/xsh_cat.o
 .text.__x86.get_pc_thunk.bx
                0x0000000000000000        0x4 binaries/xsh_cat.o
 .note.gnu.property
                0x0000000000000000       0x1c binaries/xsh_cat.o
 .group         0x0000000000000000        0x8 binaries/xsh_clear.o
 .text.__x86.get_pc_thunk.ax
                0x0000000000000000        0x4 binaries/xsh_clear.o
 .note.gnu.property
                0x0000000000000000       0x1c binaries/xsh_clear.o
 .group         0x0000000000000000        0x8 binaries/xsh_date.o
 .text.__x86.get_pc_thunk.bx
                0x0000000000000000        0x4 binaries/xsh_date.o
 .note.gnu.property
                0x0000000000000000       0x1c binaries/xsh_date.o
 .group         0x0000000000000000        0x8 binaries/xsh_devdump.o
 .text.__x86.get_pc_thunk.bx
                0x0000000000000000        0x4 binaries/xsh_devdump.o
 .note.gnu.property
                0x0000000000000000       0x1c binaries/xsh_devdump.o
 .group         0x0000000000000000        0x8 binaries/xsh_echo.o
 .text.__x86.get_pc_thunk.bx
                0x0000000000000000        0x4 binaries/xsh_echo.o
 .note.gnu.property
                0x0000000000000000       0x1c binaries/xsh_echo.o
 .group         0x0000000000000000        0x8 binaries/xsh_exit.o
 .text.__x86.get_pc_thunk.ax
                0x0000000000000000        0x4 binaries/xsh_exit.o
 .note.gnu.property
                0x0000000000000000       0x1c binaries/xsh_exit.o
 .group         0x0000000000000000        0x8 binaries/xsh_help.o
 .text.__x86.get_pc_thunk.bx
                0x0000000000000000        0x4 binaries/xsh_help.o
 .note.gnu.property
                0x0000000000000000       0x1c binaries/xsh_help.o
 .group         0x0000000000000000        0x8 binaries/xsh_kill.o
 .text.__x86.get_pc_thunk.bx
                0x0000000000000000        0x4 binaries/xsh_kill.o
 .note.gnu.property
                0x0000000000000000       0x1c binaries/xsh_kill.o
 .group         0x0000000000000000        0x8 binaries/xsh_lab2.o
 .text.__x86.get_pc_thunk.bx
                0x0000000000000000        0x4 binaries/xsh_lab2.o
 .note.gnu.property
                0x0000000000000000       0x1c binaries/xsh_lab2.o
 .group         0x0000000000000000        0x8 binaries/xsh_lab3.o
 .group         0x0000000000000000        0x8 binaries/xsh_lab3.o
 .group         0x0000000000000000        0x8 binaries/xsh_lab3.o
 .text.__x86.get_pc_thunk.ax
                0x0000000000000000        0x4 binaries/xsh_lab3.o
 .text.__x86.get_pc_thunk.bx
                0x0000000000000000        0x4 binaries/xsh_lab3.o
 .note.gnu.property
                0x0000000000000000       0x1c binaries/xsh_lab3.o
 .group         0x0000000000000000        0x8 binaries/xsh_lab4.o
 .text.__x86.get_pc_thunk.bx
                0x0000000000000000        0x4 binaries/xsh_lab4.o
 .note.gnu.property
                0x0000000000000000       0x1c binaries/xsh_lab4.o
 .group         0x0000000000000000        0x8 binaries/xsh_lab5.o
 .text.__x86.get_pc_thunk.bx
                0x0000000000000000        0x4 binaries/xsh_lab5.o
 .note.gnu.property
                0x0000000000000000       0x1c binaries/xsh_lab5.o
 .group         0x0000000000000000        0x8 binaries/xsh_lab6.o
 .text.__x86.get_pc_thunk.bx
                0x0000000000000000        0x4 binaries/xsh_lab6.o
 .note.gnu.property
                0x0000000000000000       0x1c binaries/xsh_lab6.o
 .group         0x0000000000000000        0x8 binaries/xsh_memdump.o
 .group         0x0000000000000000        0x8 binaries/xsh_memdump.o
 .text.__x86.get_pc_thunk.ax
                0x0000000000000000        0x4 binaries/xsh_memdump.o
 .text.__x86.get_pc_thunk.bx
                0x0000000000000000        0x4 binaries/xsh_memdump.o
 .note.gnu.property
                0x0000000000000000       0x1c binaries/xsh_memdump.o
 .group         0x0000000000000000        0x8 binaries/xsh_memstat.o
 .text.__x86.get_pc_thunk.bx
                0x0000000000000000        0x4 binaries/xsh_memstat.o
 .note.gnu.property
                0x0000000000000000       0x1c binaries/xsh_memstat.o
 .group         0x0000000000000000        0x8 binaries/xsh_ps.o
 .text.__x86.get_pc_thunk.bx
                0x0000000000000000        0x4 binaries/xsh_ps.o
 .note.gnu.property
                0x0000000000000000       0x1c binaries/xsh_ps.o
 .group         0x0000000000000000        0x8 binaries/xsh_sleep.o
 .text.__x86.get_pc_thunk.bx
                0x0000000000000000        0x4 binaries/xsh_sleep.o
 .note.gnu.property
                0x0000000000000000       0x1c binaries/xsh_sleep.o
 .group         0x0000000000000000        0x8 binaries/xsh_uptime.o
 .text.__x86.get_pc_thunk.bx
                0x0000000000000000        0x4 binaries/xsh_uptime.o
 .note.gnu.property
                0x0000000000000000       0x1c binaries/xsh_uptime.o

Memory Configuration

Name             Origin             Length             Attributes
*default*        0x0000000000000000 0xffffffffffffffff

Linker script and memory map

                0x0000000000100000                physbase = 0x100000
                0x0000000000100000                . = physbase
                0x0000000000100000                . = ALIGN (0x1000)

.text           0x0000000000100000    0x16000
                0x0000000000100000                text = ABSOLUTE (.)
 *(.text .text.*)
 .text          0x0000000000100000      0x171 binaries/start.o
                0x0000000000100024                start
                0x00000000001000b3                inb
                0x00000000001000bb                inw
                0x00000000001000c4                inl
                0x00000000001000cc                outb
                0x00000000001000d6                outw
                0x00000000001000e1                outl
                0x00000000001000eb                _rtcin
                0x00000000001000f6                ___udivsi3
                0x0000000000100101                ___divsi3
                0x000000000010010d                sbzero
                0x000000000010011d                insw
                0x0000000000100133                outsw
                0x0000000000100149                bcopy
                0x000000000010015d                lidt
                0x0000000000100165                cpuid
 .text          0x0000000000100171       0xde binaries/Lab4_alloc_free.o
                0x0000000000100171                physical_addr_alloc
                0x00000000001001ee                physical_addr_free
 .text.__x86.get_pc_thunk.bx
                0x000000000010024f        0x4 binaries/Lab4_alloc_free.o
                0x000000000010024f                __x86.get_pc_thunk.bx
 .text          0x0000000000100253      0x138 binaries/Lab4_do_stk_expend.o
                0x0000000000100253                _do_stk_expand
 .text          0x000000000010038b      0x1f8 binaries/Lab4_fillpgentry.o
                0x000000000010038b                isfree
                0x0000000000100477                fill_page_entry
 .text          0x0000000000100583       0xdf binaries/Lab4_getheap.o
                0x0000000000100583                getheap
 .text          0x0000000000100662       0x1a binaries/Lab4_invlpg.o
                0x0000000000100662                invlpg
 .text.__x86.get_pc_thunk.ax
                0x000000000010067c        0x4 binaries/Lab4_invlpg.o
                0x000000000010067c                __x86.get_pc_thunk.ax
 .text          0x0000000000100680       0xc7 binaries/Lab4_log2ph.o
                0x0000000000100680                log2ph
 .text          0x0000000000100747      0x196 binaries/Lab4_memlib.o
                0x0000000000100747                mem_init
                0x00000000001007ce                mem_deinit
                0x0000000000100802                mem_reset_brk
                0x0000000000100822                mem_sbrk
                0x0000000000100887                mem_heap_lo
                0x00000000001008a0                mem_heap_hi
                0x00000000001008ba                mem_heapsize
 .text          0x00000000001008dd     0x20e7 binaries/Lab4_memory_pools.o
                0x00000000001008dd                mm_init
                0x0000000000100994                mm_malloc
                0x0000000000100ae1                mm_free
                0x0000000000100b4e                mm_realloc
                0x0000000000100d2d                power2
                0x0000000000100d82                extend
                0x0000000000100e29                findFit
                0x0000000000100eb2                placeHead
                0x0000000000100ff9                placeTail
                0x0000000000101146                coalesce
                0x00000000001014a0                checkNext
                0x00000000001015ec                cmp
                0x0000000000101682                getNext
                0x000000000010171c                swap
                0x000000000010174d                swapColor
                0x0000000000101806                swapNode
                0x0000000000101c27                takeOff
                0x0000000000101c9d                RBtree_insert
                0x0000000000101d9f                RBtree_delete
                0x0000000000101f52                rotateAt
                0x00000000001020e0                connect34
                0x000000000010218c                solveDoubleRed
                0x00000000001023c7                solveDoubleBlack
                0x00000000001026de                traverse
                0x0000000000102769                print
                0x000000000010283d                mm_checkblock
 .text          0x00000000001029c4      0x408 binaries/ascdate.o
                0x00000000001029c4                ascdate
 .text.__x86.get_pc_thunk.cx
                0x0000000000102dcc        0x4 binaries/ascdate.o
                0x0000000000102dcc                __x86.get_pc_thunk.cx
 .text          0x0000000000102dd0       0x24 binaries/bufinit.o
                0x0000000000102dd0                bufinit
 .text          0x0000000000102df4       0xae binaries/chprio.o
                0x0000000000102df4                chprio
 .text          0x0000000000102ea2       0xe8 binaries/clkhandler.o
                0x0000000000102ea2                clkhandler
 .text          0x0000000000102f8a       0xa7 binaries/clkinit.o
                0x0000000000102f8a                clkinit
 .text          0x0000000000103031       0x8a binaries/close.o
                0x0000000000103031                close
 .text          0x00000000001030bb        0x0 binaries/conf.o
 .text          0x00000000001030bb       0x90 binaries/control.o
                0x00000000001030bb                control
 .text          0x000000000010314b      0x8b8 binaries/create.o
                0x000000000010314b                create
 .text          0x0000000000103a03      0x520 binaries/evec.o
                0x0000000000103a03                initevec
                0x0000000000103b42                set_evec
                0x0000000000103c1d                _8259_setirmask
                0x0000000000103c92                trap
 .text          0x0000000000103f23       0x2d binaries/exit.o
                0x0000000000103f23                exit
 .text          0x0000000000103f50       0xa5 binaries/freebuf.o
                0x0000000000103f50                freebuf
 .text          0x0000000000103ff5       0xd7 binaries/freemem.o
                0x0000000000103ff5                freemem
 .text          0x00000000001040cc       0xa3 binaries/getbuf.o
                0x00000000001040cc                getbuf
 .text          0x000000000010416f       0x8a binaries/getc.o
                0x000000000010416f                getc
 .text          0x00000000001041f9       0x8a binaries/getdev.o
                0x00000000001041f9                getdev
 .text          0x0000000000104283      0x11d binaries/getitem.o
                0x0000000000104283                getfirst
                0x00000000001042dd                getlast
                0x0000000000104339                getitem
 .text.__x86.get_pc_thunk.dx
                0x00000000001043a0        0x4 binaries/getitem.o
                0x00000000001043a0                __x86.get_pc_thunk.dx
 .text          0x00000000001043a4       0xbd binaries/getmem.o
                0x00000000001043a4                getmem
 .text          0x0000000000104461       0x1b binaries/getpid.o
                0x0000000000104461                getpid
 .text          0x000000000010447c       0x98 binaries/getprio.o
                0x000000000010447c                getprio
 .text          0x0000000000104514      0x118 binaries/getstk.o
                0x0000000000104514                getstk
 .text          0x000000000010462c       0x24 binaries/getticks.o
                0x000000000010462c                getticks
 .text          0x0000000000104650       0x18 binaries/gettime.o
                0x0000000000104650                gettime
 .text          0x0000000000104668       0x18 binaries/getutime.o
                0x0000000000104668                getutime
 .text          0x0000000000104680       0x8a binaries/init.o
                0x0000000000104680                init
 .text          0x000000000010470a      0x3b3 binaries/initialize.o
                0x000000000010470a                nulluser
                0x0000000000104a42                stop
                0x0000000000104a81                delay
 .text          0x0000000000104abd      0x10d binaries/insert.o
                0x0000000000104abd                insert
 .text          0x0000000000104bca      0x146 binaries/insertd.o
                0x0000000000104bca                insertd
 .text          0x0000000000104d10       0x18 binaries/ioerr.o
                0x0000000000104d10                ioerr
 .text          0x0000000000104d28       0x18 binaries/ionull.o
                0x0000000000104d28                ionull
 .text          0x0000000000104d40      0x29a binaries/kill.o
                0x0000000000104d40                kill
 .text          0x0000000000104fda      0x1d6 binaries/kprintf.o
                0x0000000000104fda                kputc
                0x00000000001050a6                kgetc
                0x0000000000105170                kprintf
 .text          0x00000000001051b0       0xfa binaries/main.o
                0x00000000001051b0                sndA
                0x00000000001051d7                sndB
                0x00000000001051fe                main
 .text          0x00000000001052aa       0xf6 binaries/mark.o
                0x00000000001052aa                markinit
                0x00000000001052e7                mark
 .text          0x00000000001053a0      0x196 binaries/mkbufpool.o
                0x00000000001053a0                mkbufpool
 .text          0x0000000000105536       0xbf binaries/newqueue.o
                0x0000000000105536                newqueue
 .text          0x00000000001055f5       0x90 binaries/open.o
                0x00000000001055f5                open
 .text          0x0000000000105685       0x32 binaries/panic.o
                0x0000000000105685                panic
 .text          0x00000000001056b7       0x31 binaries/platinit.o
                0x00000000001056b7                console_init
                0x00000000001056cf                platinit
 .text          0x00000000001056e8      0x109 binaries/ptclear.o
                0x00000000001056e8                _ptclear
 .text          0x00000000001057f1       0xb3 binaries/ptcount.o
                0x00000000001057f1                ptcount
 .text          0x00000000001058a4      0x138 binaries/ptcreate.o
                0x00000000001058a4                ptcreate
 .text          0x00000000001059dc       0x98 binaries/ptdelete.o
                0x00000000001059dc                ptdelete
 .text          0x0000000000105a74       0xe9 binaries/ptinit.o
                0x0000000000105a74                ptinit
 .text          0x0000000000105b5d      0x139 binaries/ptrecv.o
                0x0000000000105b5d                ptrecv
 .text          0x0000000000105c96       0x8d binaries/ptreset.o
                0x0000000000105c96                ptreset
 .text          0x0000000000105d23      0x15e binaries/ptsend.o
                0x0000000000105d23                ptsend
 .text          0x0000000000105e81       0x95 binaries/putc.o
                0x0000000000105e81                putc
 .text          0x0000000000105f16      0x153 binaries/queue.o
                0x0000000000105f16                enqueue
                0x0000000000105fe0                dequeue
 .text          0x0000000000106069       0x90 binaries/read.o
                0x0000000000106069                read
 .text          0x00000000001060f9       0x98 binaries/ready.o
                0x00000000001060f9                ready
 .text          0x0000000000106191       0x7c binaries/receive.o
                0x0000000000106191                receive
 .text          0x000000000010620d       0x78 binaries/recvclr.o
                0x000000000010620d                recvclr
 .text          0x0000000000106285       0xdd binaries/recvtime.o
                0x0000000000106285                recvtime
 .text          0x0000000000106362      0x1fc binaries/resched.o
                0x0000000000106362                resched
                0x00000000001064bd                resched_cntl
 .text          0x000000000010655e       0xcb binaries/resume.o
                0x000000000010655e                resume
 .text          0x0000000000106629       0x8e binaries/seek.o
                0x0000000000106629                seek
 .text          0x00000000001066b7       0x8b binaries/semcount.o
                0x00000000001066b7                semcount
 .text          0x0000000000106742      0x108 binaries/semcreate.o
                0x0000000000106742                semcreate
 .text          0x000000000010684a       0xe3 binaries/semdelete.o
                0x000000000010684a                semdelete
 .text          0x000000000010692d       0xe7 binaries/semreset.o
                0x000000000010692d                semreset
 .text          0x0000000000106a14      0x107 binaries/send.o
                0x0000000000106a14                send
 .text          0x0000000000106b1b       0xbe binaries/signal.o
                0x0000000000106b1b                signal
 .text          0x0000000000106bd9       0xec binaries/signaln.o
                0x0000000000106bd9                signaln
 .text          0x0000000000106cc5      0x11d binaries/sleep.o
                0x0000000000106cc5                sleep
                0x0000000000106d21                sleepms
 .text          0x0000000000106de2      0x1c0 binaries/stacktrace.o
                0x0000000000106de2                stacktrace
 .text          0x0000000000106fa2      0x101 binaries/suspend.o
                0x0000000000106fa2                suspend
 .text          0x00000000001070a3      0x10c binaries/unsleep.o
                0x00000000001070a3                unsleep
 .text          0x00000000001071af       0x2d binaries/userret.o
                0x00000000001071af                userret
 .text          0x00000000001071dc      0x4b4 binaries/vminit.o
                0x00000000001071dc                vminit
                0x0000000000107589                setsegs
 .text          0x0000000000107690      0x100 binaries/wait.o
                0x0000000000107690                wait
 .text          0x0000000000107790       0x9c binaries/wakeup.o
                0x0000000000107790                wakeup
 .text          0x000000000010782c       0x90 binaries/write.o
                0x000000000010782c                write
 .text          0x00000000001078bc       0x33 binaries/xdone.o
                0x00000000001078bc                xdone
 .text          0x00000000001078ef       0x3b binaries/yield.o
                0x00000000001078ef                yield
 .text          0x000000000010792a       0x1f binaries/abs.o
                0x000000000010792a                abs
 .text          0x0000000000107949       0x9e binaries/atoi.o
                0x0000000000107949                atoi
 .text          0x00000000001079e7       0x9e binaries/atol.o
                0x00000000001079e7                atol
 .text          0x0000000000107a85       0x40 binaries/bzero.o
                0x0000000000107a85                bzero
 .text          0x0000000000107ac5        0x0 binaries/ctype_.o
 .text          0x0000000000107ac5      0x96b binaries/doprnt.o
                0x0000000000107ac5                _doprnt
 .text          0x0000000000108430      0x709 binaries/doscan.o
                0x0000000000108430                _doscan
 .text.__x86.get_pc_thunk.di
                0x0000000000108b39        0x4 binaries/doscan.o
                0x0000000000108b39                __x86.get_pc_thunk.di
 .text          0x0000000000108b3d      0x788 binaries/fdoprnt.o
                0x0000000000108b3d                _fdoprnt
 .text          0x00000000001092c5       0x3d binaries/fgetc.o
                0x00000000001092c5                fgetc
 .text          0x0000000000109302       0x88 binaries/fgets.o
                0x0000000000109302                fgets
 .text          0x000000000010938a       0x40 binaries/fprintf.o
                0x000000000010938a                fprintf
 .text          0x00000000001093ca       0x40 binaries/fputc.o
                0x00000000001093ca                fputc
 .text          0x000000000010940a       0x56 binaries/fputs.o
                0x000000000010940a                fputs
 .text          0x0000000000109460       0xc2 binaries/fscanf.o
                0x0000000000109460                fscanf
 .text          0x0000000000109522       0x4e binaries/getchar.o
                0x0000000000109522                getchar
 .text          0x0000000000109570       0x1f binaries/labs.o
                0x0000000000109570                labs
 .text          0x000000000010958f        0x0 binaries/memchr.o
 .text          0x000000000010958f       0x5f binaries/memcmp.o
                0x000000000010958f                memcmp
 .text          0x00000000001095ee       0x34 binaries/memcpy.o
                0x00000000001095ee                memcpy
 .text          0x0000000000109622       0x3e binaries/memset.o
                0x0000000000109622                memset
 .text          0x0000000000109660       0x66 binaries/printf.o
                0x0000000000109660                printf
 .text          0x00000000001096c6       0x51 binaries/putchar.o
                0x00000000001096c6                putchar
 .text          0x0000000000109717      0x2bf binaries/qsort.o
                0x0000000000109717                qsort
 .text          0x00000000001099d6       0x8d binaries/rand.o
                0x00000000001099d6                rand
                0x00000000001099fe                rand_r
                0x0000000000109a46                srand
 .text          0x0000000000109a63       0x8a binaries/sprintf.o
                0x0000000000109a63                sprintf
 .text          0x0000000000109aed       0xa4 binaries/sscanf.o
                0x0000000000109aed                sscanf
 .text          0x0000000000109b91       0x4a binaries/strchr.o
                0x0000000000109b91                strchr
 .text          0x0000000000109bdb       0x53 binaries/strcmp.o
                0x0000000000109bdb                strcmp
 .text          0x0000000000109c2e       0x35 binaries/strcpy.o
                0x0000000000109c2e                strcpy
 .text          0x0000000000109c63       0x34 binaries/strlen.o
                0x0000000000109c63                strlen
 .text          0x0000000000109c97       0x64 binaries/strncat.o
                0x0000000000109c97                strncat
 .text          0x0000000000109cfb       0x6c binaries/strncmp.o
                0x0000000000109cfb                strncmp
 .text          0x0000000000109d67       0x5d binaries/strncpy.o
                0x0000000000109d67                strncpy
 .text          0x0000000000109dc4       0x3c binaries/strnlen.o
                0x0000000000109dc4                strnlen
 .text          0x0000000000109e00       0x53 binaries/strrchr.o
                0x0000000000109e00                strrchr
 .text          0x0000000000109e53       0x7c binaries/strstr.o
                0x0000000000109e53                strstr
 .text          0x0000000000109ecf      0x100 binaries/ttycontrol.o
                0x0000000000109ecf                ttycontrol
 .text          0x0000000000109fcf       0xaf binaries/ttygetc.o
                0x0000000000109fcf                ttygetc
 .text          0x000000000010a07e      0x933 binaries/ttyhandle_in.o
                0x000000000010a07e                ttyhandle_in
                0x000000000010a729                erase1
                0x000000000010a87f                echoch
                0x000000000010a93d                eputc
 .text          0x000000000010a9b1      0x1c5 binaries/ttyhandle_out.o
                0x000000000010a9b1                ttyhandle_out
 .text          0x000000000010ab76       0xec binaries/ttyhandler.o
                0x000000000010ab76                ttyhandler
 .text          0x000000000010ac62      0x243 binaries/ttyinit.o
                0x000000000010ac62                ttyinit
 .text          0x000000000010aea5       0x2f binaries/ttykickout.o
                0x000000000010aea5                ttykickout
 .text          0x000000000010aed4       0xcd binaries/ttyputc.o
                0x000000000010aed4                ttyputc
 .text          0x000000000010afa1      0x12f binaries/ttyread.o
                0x000000000010afa1                ttyread
 .text          0x000000000010b0d0       0x60 binaries/ttywrite.o
                0x000000000010b0d0                ttywrite
 .text          0x000000000010b130      0x17c binaries/mount.o
                0x000000000010b130                mount
                0x000000000010b268                namlen
 .text          0x000000000010b2ac      0x224 binaries/naminit.o
                0x000000000010b2ac                naminit
 .text          0x000000000010b4d0      0x24f binaries/nammap.o
                0x000000000010b4d0                nammap
                0x000000000010b571                namrepl
                0x000000000010b6c1                namcpy
 .text          0x000000000010b71f       0x61 binaries/namopen.o
                0x000000000010b71f                namopen
 .text          0x000000000010b780       0x18 binaries/ramclose.o
                0x000000000010b780                ramclose
 .text          0x000000000010b798       0x5c binaries/raminit.o
                0x000000000010b798                raminit
 .text          0x000000000010b7f4       0x18 binaries/ramopen.o
                0x000000000010b7f4                ramopen
 .text          0x000000000010b80c       0x4b binaries/ramread.o
                0x000000000010b80c                ramread
 .text          0x000000000010b857       0x4b binaries/ramwrite.o
                0x000000000010b857                ramwrite
 .text          0x000000000010b8a2       0xc8 binaries/lfdballoc.o
                0x000000000010b8a2                lfdballoc
 .text          0x000000000010b96a       0x70 binaries/lfdbfree.o
                0x000000000010b96a                lfdbfree
 .text          0x000000000010b9da       0xe4 binaries/lfflush.o
                0x000000000010b9da                lfflush
 .text          0x000000000010babe       0xed binaries/lfgetmode.o
                0x000000000010babe                lfgetmode
 .text          0x000000000010bbab       0x96 binaries/lfiballoc.o
                0x000000000010bbab                lfiballoc
 .text          0x000000000010bc41       0x49 binaries/lfibclear.o
                0x000000000010bc41                lfibclear
 .text          0x000000000010bc8a       0xc0 binaries/lfibget.o
                0x000000000010bc8a                lfibget
 .text          0x000000000010bd4a       0xef binaries/lfibput.o
                0x000000000010bd4a                lfibput
 .text          0x000000000010be39       0xbf binaries/lflclose.o
                0x000000000010be39                lflclose
 .text          0x000000000010bef8       0xf1 binaries/lflcontrol.o
                0x000000000010bef8                lflcontrol
 .text          0x000000000010bfe9      0x108 binaries/lflgetc.o
                0x000000000010bfe9                lflgetc
 .text          0x000000000010c0f1      0x104 binaries/lflinit.o
                0x000000000010c0f1                lflinit
 .text          0x000000000010c1f5      0x13e binaries/lflputc.o
                0x000000000010c1f5                lflputc
 .text          0x000000000010c333       0x83 binaries/lflread.o
                0x000000000010c333                lflread
 .text          0x000000000010c3b6       0xc2 binaries/lflseek.o
                0x000000000010c3b6                lflseek
 .text          0x000000000010c478       0x68 binaries/lflwrite.o
                0x000000000010c478                lflwrite
 .text          0x000000000010c4e0       0x70 binaries/lfscheck.o
                0x000000000010c4e0                lfscheck
 .text          0x000000000010c550      0x198 binaries/lfsckfmt.o
                0x000000000010c550                lfsckfmt
 .text          0x000000000010c6e8      0x1c2 binaries/lfscreate.o
                0x000000000010c6e8                lfscreate
 .text          0x000000000010c8aa      0x2a7 binaries/lfsetup.o
                0x000000000010c8aa                lfsetup
 .text          0x000000000010cb51       0x83 binaries/lfsinit.o
                0x000000000010cb51                lfsinit
 .text          0x000000000010cbd4      0x415 binaries/lfsopen.o
                0x000000000010cbd4                lfsopen
 .text          0x000000000010cfe9      0x18e binaries/lftruncate.o
                0x000000000010cfe9                lftruncate
 .text          0x000000000010d177      0x583 binaries/Lab5_vgacontrol.o
                0x000000000010d177                vga_putc
                0x000000000010d460                vga_erase
                0x000000000010d5bb                vga_shellbanner
 .text          0x000000000010d6fa      0x16e binaries/Lab5_vgacursor.o
                0x000000000010d6fa                set_cursor
                0x000000000010d777                get_cursor
                0x000000000010d7ed                vga_cursor_left
                0x000000000010d82a                vga_cursor_right
 .text          0x000000000010d868       0x78 binaries/Lab5_vgagetc.o
                0x000000000010d868                vgagetc
 .text          0x000000000010d8e0      0x672 binaries/Lab5_vgahandler.o
                0x000000000010d8e0                vgahandler
 .text          0x000000000010df52       0xb7 binaries/Lab5_vgainit.o
                0x000000000010df52                vgainit
 .text          0x000000000010e009       0x4e binaries/Lab5_vgaputc.o
                0x000000000010e009                vgaputc
 .text          0x000000000010e057       0x9c binaries/Lab5_vgaread.o
                0x000000000010e057                vgaread
 .text          0x000000000010e0f3       0x60 binaries/Lab5_vgawrite.o
                0x000000000010e0f3                vgawrite
 .text          0x000000000010e153       0x33 binaries/Lab5_multiinit.o
                0x000000000010e153                multiinit
 .text          0x000000000010e186       0x5b binaries/Lab5_multiputc.o
                0x000000000010e186                multiputc
 .text          0x000000000010e1e1       0x60 binaries/Lab5_multiwrite.o
                0x000000000010e1e1                multiwrite
 .text          0x000000000010e241       0x94 binaries/disk.o
                0x000000000010e241                diskinit
 .text          0x000000000010e2d5      0x16e binaries/diskflush.o
                0x000000000010e2d5                diskflush
 .text          0x000000000010e443      0x1a6 binaries/diskgetc.o
                0x000000000010e443                diskgetc
 .text          0x000000000010e5e9      0x1bb binaries/diskputc.o
                0x000000000010e5e9                diskputc
 .text          0x000000000010e7a4       0x4c binaries/diskread.o
                0x000000000010e7a4                diskread
 .text          0x000000000010e7f0       0x43 binaries/diskseek.o
                0x000000000010e7f0                diskseek
 .text          0x000000000010e833       0x7d binaries/diskwrite.o
                0x000000000010e833                diskwrite
 .text          0x000000000010e8b0      0x477 binaries/addargs.o
                0x000000000010e8b0                upload_args
                0x000000000010e98c                addargs
 .text          0x000000000010ed27      0x2df binaries/lexan.o
                0x000000000010ed27                lexan
 .text          0x000000000010f006      0x6fb binaries/shell.o
                0x000000000010f006                shell
 .text          0x000000000010f701       0x85 binaries/xsh_argecho.o
                0x000000000010f701                xsh_argecho
 .text          0x000000000010f786      0x2df binaries/xsh_cat.o
                0x000000000010f786                xsh_cat
 .text          0x000000000010fa65       0x83 binaries/xsh_clear.o
                0x000000000010fa65                xsh_clear
 .text          0x000000000010fae8      0x30c binaries/xsh_date.o
                0x000000000010fae8                xsh_date
 .text          0x000000000010fdf4       0xde binaries/xsh_devdump.o
                0x000000000010fdf4                xsh_devdump
 .text          0x000000000010fed2       0x91 binaries/xsh_echo.o
                0x000000000010fed2                xsh_echo
 .text          0x000000000010ff63       0x18 binaries/xsh_exit.o
                0x000000000010ff63                xsh_exit
 .text          0x000000000010ff7b      0x410 binaries/xsh_help.o
                0x000000000010ff7b                xsh_help
 .text          0x000000000011038b      0x2b8 binaries/xsh_kill.o
                0x000000000011038b                xsh_kill
 .text          0x0000000000110643      0x79d binaries/xsh_lab2.o
                0x0000000000110643                xsh_lab2
                0x0000000000110b77                u2021201780_printf_1
                0x0000000000110bfa                u2021201780_printf_2
                0x0000000000110c5e                u2021201780_printf_3
                0x0000000000110ca8                u2021201780_delay_run
                0x0000000000110d65                u2021201780_delay_test
 .text          0x0000000000110de0      0x2a8 binaries/xsh_lab3.o
                0x0000000000110de0                k2021201780_printf
                0x0000000000110e7e                k2021201780_fprintf
                0x0000000000110f2f                u2021201780_uptest
                0x0000000000110fbe                xsh_lab3
 .text.__x86.get_pc_thunk.si
                0x0000000000111088        0x4 binaries/xsh_lab3.o
                0x0000000000111088                __x86.get_pc_thunk.si
 .text          0x000000000011108c      0x1d8 binaries/xsh_lab4.o
                0x000000000011108c                xsh_lab4
 .text          0x0000000000111264      0x14a binaries/xsh_lab5.o
                0x0000000000111264                xsh_lab5
 .text          0x00000000001113ae      0x57f binaries/xsh_lab6.o
                0x00000000001113ae                xsh_lab6_ls
                0x000000000011144b                xsh_lab6_exec
                0x000000000011177c                xsh_lab6_fcat
                0x00000000001118b1                k2021201780_load_code
 .text          0x000000000011192d      0x5f1 binaries/xsh_memdump.o
                0x000000000011192d                xsh_memdump
 .text          0x0000000000111f1e      0x352 binaries/xsh_memstat.o
                0x0000000000111f1e                xsh_memstat
 .text          0x0000000000112270      0x254 binaries/xsh_ps.o
                0x0000000000112270                xsh_ps
 .text          0x00000000001124c4      0x28a binaries/xsh_sleep.o
                0x00000000001124c4                xsh_sleep
 .text          0x000000000011274e      0x254 binaries/xsh_uptime.o
                0x000000000011274e                xsh_uptime
 .text          0x00000000001129a2        0x8 binaries/Lab3_create.o
                0x00000000001129a2                u2021201780_create
 .text          0x00000000001129aa       0x20 binaries/Lab3_fprintf.o
                0x00000000001129aa                u2021201780_fprintf
 .text          0x00000000001129ca        0x8 binaries/Lab3_ltss.o
                0x00000000001129ca                k2021201780_ltss
 .text          0x00000000001129d2       0x19 binaries/Lab3_printf.o
                0x00000000001129d2                u2021201780_printf
 .text          0x00000000001129eb        0xf binaries/Lab3_read.o
                0x00000000001129eb                u2021201780_read
 .text          0x00000000001129fa        0x3 binaries/Lab3_receive.o
                0x00000000001129fa                u2021201780_receive
 .text          0x00000000001129fd        0x3 binaries/Lab3_recvclr.o
                0x00000000001129fd                u2021201780_recvclr
 .text          0x0000000000112a00        0x7 binaries/Lab3_resume.o
                0x0000000000112a00                u2021201780_resume
 .text          0x0000000000112a07        0x2 binaries/Lab3_ret_k2u.o
                0x0000000000112a07                k2021201780_ret_k2u
 .text          0x0000000000112a09        0x2 binaries/Lab3_ret_u2k.o
                0x0000000000112a09                u2021201780_ret_u2k
 .text          0x0000000000112a0b        0x7 binaries/Lab3_sleep.o
                0x0000000000112a0b                u2021201780_sleep
 .text          0x0000000000112a12        0x7 binaries/Lab3_sleepms.o
                0x0000000000112a12                u2021201780_sleepms
 .text          0x0000000000112a19        0x8 binaries/Lab4_addargs.o
                0x0000000000112a19                u2021201780_addargs
 .text          0x0000000000112a21       0x15 binaries/Lab4_malloc_free.o
                0x0000000000112a21                u2021201780_malloc
                0x0000000000112a28                u2021201780_free
                0x0000000000112a2f                u2021201780_heap_init
 .text          0x0000000000112a36        0xb binaries/Lab6_load_code.o
                0x0000000000112a36                u2021201780_load_code
 .text          0x0000000000112a41        0xb binaries/Lab6_seek.o
                0x0000000000112a41                u2021201780_seek
 .text          0x0000000000112a4c        0xe binaries/clkdisp.o
                0x0000000000112a4c                clkdisp
 .text          0x0000000000112a5a       0x1f binaries/ctxsw.o
                0x0000000000112a5a                ctxsw
 .text          0x0000000000112a79      0x5d1 binaries/intr.o
                0x0000000000112a79                disable
                0x0000000000112a82                restore
                0x0000000000112a90                enable
                0x0000000000112a92                pause
                0x0000000000112a99                halt
                0x0000000000112a9c                spurious_irq7
                0x0000000000112aa1                spurious_irq15
                0x0000000000112ab0                _Xint0
                0x0000000000112ab8                _Xint1
                0x0000000000112ac0                _Xint2
                0x0000000000112ac8                _Xint3
                0x0000000000112ad0                _Xint4
                0x0000000000112ad8                _Xint5
                0x0000000000112ae3                _Xint6
                0x0000000000112aeb                _Xint7
                0x0000000000112af3                _Xint8
                0x0000000000112afb                _Xint9
                0x0000000000112b03                _Xint10
                0x0000000000112b0b                _Xint11
                0x0000000000112b13                _Xint12
                0x0000000000112b1b                _Xint13
                0x0000000000112b23                _Xint14
                0x0000000000112b34                _Xint15
                0x0000000000112b3f                _Xint16
                0x0000000000112b4a                _Xint17
                0x0000000000112b55                _Xint18
                0x0000000000112b60                _Xint19
                0x0000000000112b6b                _Xint20
                0x0000000000112b76                _Xint21
                0x0000000000112b81                _Xint22
                0x0000000000112b8c                _Xint23
                0x0000000000112b97                _Xint24
                0x0000000000112ba2                _Xint25
                0x0000000000112bad                _Xint26
                0x0000000000112bb8                _Xint27
                0x0000000000112bc3                _Xint28
                0x0000000000112bce                _Xint29
                0x0000000000112bd9                _Xint30
                0x0000000000112be4                _Xint31
                0x0000000000112bef                _Xint32
                0x0000000000112bfa                _Xint33
                0x0000000000112c05                _Xint34
                0x0000000000112c10                _Xint35
                0x0000000000112c1b                _Xint36
                0x0000000000112c26                _Xint37
                0x0000000000112c31                _Xint38
                0x0000000000112c3c                _Xint40
                0x0000000000112c47                _Xint41
                0x0000000000112c52                _Xint42
                0x0000000000112c5d                _Xint43
                0x0000000000112c68                _Xint44
                0x0000000000112c73                _Xint45
                0x0000000000112c7e                _Xint46
                0x0000000000112c89                _Xint48
                0x0000000000112cc6                _Xint49
                0x0000000000112ccb                _Xint50
                0x0000000000112cee                _Xint51
                0x0000000000112d48                _Xint52
                0x0000000000112d6b                _Xint53
                0x0000000000112daa                _Xint54
                0x0000000000112dcf                _Xint55
                0x0000000000112df2                _Xint56
                0x0000000000112e13                _Xint57
                0x0000000000112e34                _Xint58
                0x0000000000112e70                _Xint59
                0x0000000000112e93                _Xint60
                0x0000000000112eb6                _Xint61
                0x0000000000112ed7                _Xint62
                0x0000000000112efc                _Xint63
                0x0000000000112f21                _Xint64
                0x0000000000112f46                defevec
 .text          0x000000000011304a       0x10 binaries/ttydispatch.o
                0x000000000011304a                ttydispatch
 .text          0x000000000011305a       0x10 binaries/Lab5_vgadispatch.o
                0x000000000011305a                vgadispatch
 .text          0x000000000011306a       0x15 binaries/Lab5_multidispatch.o
                0x000000000011306a                multidispatch
 *(.rodata .rodata.*)
 *fill*         0x000000000011307f        0x1 
 .rodata        0x0000000000113080       0x20 binaries/Lab4_alloc_free.o
 .rodata        0x00000000001130a0       0x27 binaries/Lab4_do_stk_expend.o
 *fill*         0x00000000001130c7        0x1 
 .rodata        0x00000000001130c8       0x4a binaries/Lab4_memlib.o
 *fill*         0x0000000000113112        0x2 
 .rodata        0x0000000000113114      0x17e binaries/Lab4_memory_pools.o
 *fill*         0x0000000000113292        0x2 
 .rodata        0x0000000000113294       0x8e binaries/ascdate.o
 .rodata        0x0000000000113322       0x57 binaries/conf.o
 .rodata        0x0000000000113379        0xe binaries/create.o
 *fill*         0x0000000000113387        0x1 
 .rodata        0x0000000000113388      0x231 binaries/evec.o
 *fill*         0x00000000001135b9        0x3 
 .rodata        0x00000000001135bc      0x128 binaries/initialize.o
 .rodata        0x00000000001136e4       0x20 binaries/kill.o
 .rodata        0x0000000000113704       0x2a binaries/main.o
 .rodata        0x000000000011372e        0xf binaries/panic.o
 .rodata        0x000000000011373d       0x1d binaries/ptinit.o
 *fill*         0x000000000011375a        0x2 
 .rodata        0x000000000011375c       0x25 binaries/ptsend.o
 *fill*         0x0000000000113781        0x3 
 .rodata        0x0000000000113784       0xb7 binaries/stacktrace.o
 *fill*         0x000000000011383b        0x1 
 .rodata        0x000000000011383c       0x3e binaries/vminit.o
 *fill*         0x000000000011387a        0x2 
 .rodata        0x000000000011387c       0x27 binaries/xdone.o
 *fill*         0x00000000001138a3       0x1d 
 .rodata        0x00000000001138c0       0x81 binaries/ctype_.o
                0x00000000001138c0                _ctype_
 *fill*         0x0000000000113941        0x3 
 .rodata        0x0000000000113944       0xee binaries/doprnt.o
 *fill*         0x0000000000113a32        0x2 
 .rodata        0x0000000000113a34       0xae binaries/fdoprnt.o
 *fill*         0x0000000000113ae2        0x2 
 .rodata        0x0000000000113ae4       0x20 binaries/ttycontrol.o
 .rodata        0x0000000000113b04       0x34 binaries/ttyhandler.o
 .rodata        0x0000000000113b38       0x80 binaries/naminit.o
 .rodata        0x0000000000113bb8        0x9 binaries/raminit.o
 *fill*         0x0000000000113bc1        0x3 
 .rodata        0x0000000000113bc4       0x37 binaries/lfdballoc.o
 .rodata        0x0000000000113bfb       0x14 binaries/lfiballoc.o
 *fill*         0x0000000000113c0f        0x1 
 .rodata        0x0000000000113c10       0x23 binaries/lflcontrol.o
 *fill*         0x0000000000113c33        0x1 
 .rodata        0x0000000000113c34      0x11b binaries/lfsckfmt.o
 *fill*         0x0000000000113d4f        0x1 
 .rodata        0x0000000000113d50       0x2a binaries/lfsopen.o
 *fill*         0x0000000000113d7a        0x2 
 .rodata        0x0000000000113d7c       0x50 binaries/Lab5_vgacontrol.o
 .rodata        0x0000000000113dcc      0x399 binaries/shell.o
 .rodata        0x0000000000114165       0x28 binaries/xsh_argecho.o
 *fill*         0x000000000011418d        0x3 
 .rodata        0x0000000000114190       0xc9 binaries/xsh_cat.o
 .rodata        0x0000000000114259       0x19 binaries/xsh_clear.o
 *fill*         0x0000000000114272        0x2 
 .rodata        0x0000000000114274      0x1a5 binaries/xsh_date.o
 .rodata        0x0000000000114419       0x5d binaries/xsh_devdump.o
 .rodata        0x0000000000114476        0x9 binaries/xsh_echo.o
 *fill*         0x000000000011447f        0x1 
 .rodata        0x0000000000114480      0x16a binaries/xsh_help.o
 *fill*         0x00000000001145ea        0x2 
 .rodata        0x00000000001145ec      0x12e binaries/xsh_kill.o
 *fill*         0x000000000011471a        0x2 
 .rodata        0x000000000011471c      0x3ad binaries/xsh_lab2.o
 .rodata        0x0000000000114ac9       0x44 binaries/xsh_lab3.o
 .rodata        0x0000000000114b0d       0x8a binaries/xsh_lab4.o
 .rodata        0x0000000000114b97       0x6d binaries/xsh_lab5.o
 .rodata        0x0000000000114c04       0x79 binaries/xsh_lab6.o
 *fill*         0x0000000000114c7d        0x3 
 .rodata        0x0000000000114c80      0x266 binaries/xsh_memdump.o
 *fill*         0x0000000000114ee6        0x2 
 .rodata        0x0000000000114ee8      0x225 binaries/xsh_memstat.o
 *fill*         0x000000000011510d        0x3 
 .rodata        0x0000000000115110      0x1a8 binaries/xsh_ps.o
 .rodata        0x00000000001152b8       0xeb binaries/xsh_sleep.o
 *fill*         0x00000000001153a3        0x1 
 .rodata        0x00000000001153a4      0x105 binaries/xsh_uptime.o
                0x00000000001154a9                etext = ABSOLUTE (.)
                0x0000000000116000                . = ALIGN (0x1000)
 *fill*         0x00000000001154a9      0xb57 

.eh_frame       0x0000000000116000     0x2aac
 .eh_frame      0x0000000000116000       0x74 binaries/Lab4_alloc_free.o
 .eh_frame      0x0000000000116074       0x24 binaries/Lab4_do_stk_expend.o
                                         0x50 (size before relaxing)
 .eh_frame      0x0000000000116098       0x48 binaries/Lab4_fillpgentry.o
                                         0x74 (size before relaxing)
 .eh_frame      0x00000000001160e0       0x24 binaries/Lab4_getheap.o
                                         0x50 (size before relaxing)
 .eh_frame      0x0000000000116104       0x34 binaries/Lab4_invlpg.o
                                         0x4c (size before relaxing)
 .eh_frame      0x0000000000116138       0x24 binaries/Lab4_log2ph.o
                                         0x50 (size before relaxing)
 .eh_frame      0x000000000011615c       0xec binaries/Lab4_memlib.o
                                        0x12c (size before relaxing)
 .eh_frame      0x0000000000116248      0x37c binaries/Lab4_memory_pools.o
                                        0x3bc (size before relaxing)
 .eh_frame      0x00000000001165c4       0x38 binaries/ascdate.o
                                         0x50 (size before relaxing)
 .eh_frame      0x00000000001165fc       0x20 binaries/bufinit.o
                                         0x4c (size before relaxing)
 .eh_frame      0x000000000011661c       0x24 binaries/chprio.o
                                         0x50 (size before relaxing)
 .eh_frame      0x0000000000116640       0x24 binaries/clkhandler.o
                                         0x50 (size before relaxing)
 .eh_frame      0x0000000000116664       0x24 binaries/clkinit.o
                                         0x50 (size before relaxing)
 .eh_frame      0x0000000000116688       0x24 binaries/close.o
                                         0x50 (size before relaxing)
 .eh_frame      0x00000000001166ac       0x24 binaries/control.o
                                         0x50 (size before relaxing)
 .eh_frame      0x00000000001166d0       0x48 binaries/create.o
                                         0x88 (size before relaxing)
 .eh_frame      0x0000000000116718       0x90 binaries/evec.o
                                         0xd0 (size before relaxing)
 .eh_frame      0x00000000001167a8       0x24 binaries/exit.o
                                         0x50 (size before relaxing)
 .eh_frame      0x00000000001167cc       0x24 binaries/freebuf.o
                                         0x50 (size before relaxing)
 .eh_frame      0x00000000001167f0       0x24 binaries/freemem.o
                                         0x50 (size before relaxing)
 .eh_frame      0x0000000000116814       0x24 binaries/getbuf.o
                                         0x50 (size before relaxing)
 .eh_frame      0x0000000000116838       0x24 binaries/getc.o
                                         0x50 (size before relaxing)
 .eh_frame      0x000000000011685c       0x24 binaries/getdev.o
                                         0x50 (size before relaxing)
 .eh_frame      0x0000000000116880       0x78 binaries/getitem.o
                                         0xa4 (size before relaxing)
 .eh_frame      0x00000000001168f8       0x24 binaries/getmem.o
                                         0x50 (size before relaxing)
 .eh_frame      0x000000000011691c       0x20 binaries/getpid.o
                                         0x4c (size before relaxing)
 .eh_frame      0x000000000011693c       0x24 binaries/getprio.o
                                         0x50 (size before relaxing)
 .eh_frame      0x0000000000116960       0x24 binaries/getstk.o
                                         0x50 (size before relaxing)
 .eh_frame      0x0000000000116984       0x20 binaries/getticks.o
                                         0x4c (size before relaxing)
 .eh_frame      0x00000000001169a4       0x20 binaries/gettime.o
                                         0x4c (size before relaxing)
 .eh_frame      0x00000000001169c4       0x20 binaries/getutime.o
                                         0x4c (size before relaxing)
 .eh_frame      0x00000000001169e4       0x24 binaries/init.o
                                         0x50 (size before relaxing)
 .eh_frame      0x0000000000116a08       0xa4 binaries/initialize.o
                                         0xe4 (size before relaxing)
 .eh_frame      0x0000000000116aac       0x28 binaries/insert.o
                                         0x54 (size before relaxing)
 .eh_frame      0x0000000000116ad4       0x28 binaries/insertd.o
                                         0x54 (size before relaxing)
 .eh_frame      0x0000000000116afc       0x20 binaries/ioerr.o
                                         0x4c (size before relaxing)
 .eh_frame      0x0000000000116b1c       0x20 binaries/ionull.o
                                         0x4c (size before relaxing)
 .eh_frame      0x0000000000116b3c       0x2c binaries/kill.o
                                         0x58 (size before relaxing)
 .eh_frame      0x0000000000116b68       0x6c binaries/kprintf.o
                                         0xac (size before relaxing)
 .eh_frame      0x0000000000116bd4       0x60 binaries/main.o
                                         0x8c (size before relaxing)
 .eh_frame      0x0000000000116c34       0x48 binaries/mark.o
                                         0x74 (size before relaxing)
 .eh_frame      0x0000000000116c7c       0x24 binaries/mkbufpool.o
                                         0x50 (size before relaxing)
 .eh_frame      0x0000000000116ca0       0x24 binaries/newqueue.o
                                         0x50 (size before relaxing)
 .eh_frame      0x0000000000116cc4       0x24 binaries/open.o
                                         0x50 (size before relaxing)
 .eh_frame      0x0000000000116ce8       0x1c binaries/panic.o
                                         0x48 (size before relaxing)
 .eh_frame      0x0000000000116d04       0x40 binaries/platinit.o
                                         0x6c (size before relaxing)
 .eh_frame      0x0000000000116d44       0x24 binaries/ptclear.o
                                         0x50 (size before relaxing)
 .eh_frame      0x0000000000116d68       0x24 binaries/ptcount.o
                                         0x50 (size before relaxing)
 .eh_frame      0x0000000000116d8c       0x24 binaries/ptcreate.o
                                         0x50 (size before relaxing)
 .eh_frame      0x0000000000116db0       0x24 binaries/ptdelete.o
                                         0x50 (size before relaxing)
 .eh_frame      0x0000000000116dd4       0x24 binaries/ptinit.o
                                         0x50 (size before relaxing)
 .eh_frame      0x0000000000116df8       0x24 binaries/ptrecv.o
                                         0x50 (size before relaxing)
 .eh_frame      0x0000000000116e1c       0x24 binaries/ptreset.o
                                         0x50 (size before relaxing)
 .eh_frame      0x0000000000116e40       0x24 binaries/ptsend.o
                                         0x50 (size before relaxing)
 .eh_frame      0x0000000000116e64       0x24 binaries/putc.o
                                         0x50 (size before relaxing)
 .eh_frame      0x0000000000116e88       0x48 binaries/queue.o
                                         0x88 (size before relaxing)
 .eh_frame      0x0000000000116ed0       0x24 binaries/read.o
                                         0x50 (size before relaxing)
 .eh_frame      0x0000000000116ef4       0x28 binaries/ready.o
                                         0x54 (size before relaxing)
 .eh_frame      0x0000000000116f1c       0x24 binaries/receive.o
                                         0x50 (size before relaxing)
 .eh_frame      0x0000000000116f40       0x24 binaries/recvclr.o
                                         0x50 (size before relaxing)
 .eh_frame      0x0000000000116f64       0x24 binaries/recvtime.o
                                         0x50 (size before relaxing)
 .eh_frame      0x0000000000116f88       0x48 binaries/resched.o
                                         0x88 (size before relaxing)
 .eh_frame      0x0000000000116fd0       0x24 binaries/resume.o
                                         0x50 (size before relaxing)
 .eh_frame      0x0000000000116ff4       0x24 binaries/seek.o
                                         0x50 (size before relaxing)
 .eh_frame      0x0000000000117018       0x24 binaries/semcount.o
                                         0x50 (size before relaxing)
 .eh_frame      0x000000000011703c       0x48 binaries/semcreate.o
                                         0x88 (size before relaxing)
 .eh_frame      0x0000000000117084       0x24 binaries/semdelete.o
                                         0x50 (size before relaxing)
 .eh_frame      0x00000000001170a8       0x24 binaries/semreset.o
                                         0x50 (size before relaxing)
 .eh_frame      0x00000000001170cc       0x24 binaries/send.o
                                         0x50 (size before relaxing)
 .eh_frame      0x00000000001170f0       0x24 binaries/signal.o
                                         0x50 (size before relaxing)
 .eh_frame      0x0000000000117114       0x24 binaries/signaln.o
                                         0x50 (size before relaxing)
 .eh_frame      0x0000000000117138       0x44 binaries/sleep.o
                                         0x84 (size before relaxing)
 .eh_frame      0x000000000011717c       0x24 binaries/stacktrace.o
                                         0x50 (size before relaxing)
 .eh_frame      0x00000000001171a0       0x24 binaries/suspend.o
                                         0x50 (size before relaxing)
 .eh_frame      0x00000000001171c4       0x24 binaries/unsleep.o
                                         0x50 (size before relaxing)
 .eh_frame      0x00000000001171e8       0x24 binaries/userret.o
                                         0x50 (size before relaxing)
 .eh_frame      0x000000000011720c       0x54 binaries/vminit.o
                                         0x94 (size before relaxing)
 .eh_frame      0x0000000000117260       0x24 binaries/wait.o
                                         0x50 (size before relaxing)
 .eh_frame      0x0000000000117284       0x24 binaries/wakeup.o
                                         0x50 (size before relaxing)
 .eh_frame      0x00000000001172a8       0x24 binaries/write.o
                                         0x50 (size before relaxing)
 .eh_frame      0x00000000001172cc       0x24 binaries/xdone.o
                                         0x50 (size before relaxing)
 .eh_frame      0x00000000001172f0       0x24 binaries/yield.o
                                         0x50 (size before relaxing)
 .eh_frame      0x0000000000117314       0x20 binaries/abs.o
                                         0x4c (size before relaxing)
 .eh_frame      0x0000000000117334       0x20 binaries/atoi.o
                                         0x4c (size before relaxing)
 .eh_frame      0x0000000000117354       0x20 binaries/atol.o
                                         0x4c (size before relaxing)
 .eh_frame      0x0000000000117374       0x20 binaries/bzero.o
                                         0x4c (size before relaxing)
 .eh_frame      0x0000000000117394       0xec binaries/doprnt.o
                                        0x140 (size before relaxing)
 .eh_frame      0x0000000000117480       0xc8 binaries/doscan.o
                                         0xf4 (size before relaxing)
 .eh_frame      0x0000000000117548       0xcc binaries/fdoprnt.o
                                        0x10c (size before relaxing)
 .eh_frame      0x0000000000117614       0x24 binaries/fgetc.o
                                         0x50 (size before relaxing)
 .eh_frame      0x0000000000117638       0x24 binaries/fgets.o
                                         0x50 (size before relaxing)
 .eh_frame      0x000000000011765c       0x24 binaries/fprintf.o
                                         0x50 (size before relaxing)
 .eh_frame      0x0000000000117680       0x24 binaries/fputc.o
                                         0x50 (size before relaxing)
 .eh_frame      0x00000000001176a4       0x24 binaries/fputs.o
                                         0x50 (size before relaxing)
 .eh_frame      0x00000000001176c8       0x68 binaries/fscanf.o
                                         0x94 (size before relaxing)
 .eh_frame      0x0000000000117730       0x24 binaries/getchar.o
                                         0x50 (size before relaxing)
 .eh_frame      0x0000000000117754       0x20 binaries/labs.o
                                         0x4c (size before relaxing)
 .eh_frame      0x0000000000117774       0x20 binaries/memcmp.o
                                         0x4c (size before relaxing)
 .eh_frame      0x0000000000117794       0x28 binaries/memcpy.o
                                         0x54 (size before relaxing)
 .eh_frame      0x00000000001177bc       0x24 binaries/memset.o
                                         0x50 (size before relaxing)
 .eh_frame      0x00000000001177e0       0x24 binaries/printf.o
                                         0x50 (size before relaxing)
 .eh_frame      0x0000000000117804       0x24 binaries/putchar.o
                                         0x50 (size before relaxing)
 .eh_frame      0x0000000000117828       0xa4 binaries/qsort.o
                                         0xd0 (size before relaxing)
 .eh_frame      0x00000000001178cc       0x60 binaries/rand.o
                                         0x8c (size before relaxing)
 .eh_frame      0x000000000011792c       0x44 binaries/sprintf.o
                                         0x70 (size before relaxing)
 .eh_frame      0x0000000000117970       0x64 binaries/sscanf.o
                                         0x90 (size before relaxing)
 .eh_frame      0x00000000001179d4       0x20 binaries/strchr.o
                                         0x4c (size before relaxing)
 .eh_frame      0x00000000001179f4       0x20 binaries/strcmp.o
                                         0x4c (size before relaxing)
 .eh_frame      0x0000000000117a14       0x20 binaries/strcpy.o
                                         0x4c (size before relaxing)
 .eh_frame      0x0000000000117a34       0x20 binaries/strlen.o
                                         0x4c (size before relaxing)
 .eh_frame      0x0000000000117a54       0x20 binaries/strncat.o
                                         0x4c (size before relaxing)
 .eh_frame      0x0000000000117a74       0x20 binaries/strncmp.o
                                         0x4c (size before relaxing)
 .eh_frame      0x0000000000117a94       0x28 binaries/strncpy.o
                                         0x54 (size before relaxing)
 .eh_frame      0x0000000000117abc       0x20 binaries/strnlen.o
                                         0x4c (size before relaxing)
 .eh_frame      0x0000000000117adc       0x20 binaries/strrchr.o
                                         0x4c (size before relaxing)
 .eh_frame      0x0000000000117afc       0x20 binaries/strstr.o
                                         0x4c (size before relaxing)
 .eh_frame      0x0000000000117b1c       0x24 binaries/ttycontrol.o
                                         0x50 (size before relaxing)
 .eh_frame      0x0000000000117b40       0x24 binaries/ttygetc.o
                                         0x50 (size before relaxing)
 .eh_frame      0x0000000000117b64       0x88 binaries/ttyhandle_in.o
                                         0xdc (size before relaxing)
 .eh_frame      0x0000000000117bec       0x24 binaries/ttyhandle_out.o
                                         0x50 (size before relaxing)
 .eh_frame      0x0000000000117c10       0x24 binaries/ttyhandler.o
                                         0x50 (size before relaxing)
 .eh_frame      0x0000000000117c34       0x24 binaries/ttyinit.o
                                         0x50 (size before relaxing)
 .eh_frame      0x0000000000117c58       0x24 binaries/ttykickout.o
                                         0x50 (size before relaxing)
 .eh_frame      0x0000000000117c7c       0x24 binaries/ttyputc.o
                                         0x50 (size before relaxing)
 .eh_frame      0x0000000000117ca0       0x24 binaries/ttyread.o
                                         0x50 (size before relaxing)
 .eh_frame      0x0000000000117cc4       0x24 binaries/ttywrite.o
                                         0x50 (size before relaxing)
 .eh_frame      0x0000000000117ce8       0x44 binaries/mount.o
                                         0x84 (size before relaxing)
 .eh_frame      0x0000000000117d2c       0x24 binaries/naminit.o
                                         0x50 (size before relaxing)
 .eh_frame      0x0000000000117d50       0x68 binaries/nammap.o
                                         0xa8 (size before relaxing)
 .eh_frame      0x0000000000117db8       0x24 binaries/namopen.o
                                         0x50 (size before relaxing)
 .eh_frame      0x0000000000117ddc       0x20 binaries/ramclose.o
                                         0x4c (size before relaxing)
 .eh_frame      0x0000000000117dfc       0x24 binaries/raminit.o
                                         0x50 (size before relaxing)
 .eh_frame      0x0000000000117e20       0x20 binaries/ramopen.o
                                         0x4c (size before relaxing)
 .eh_frame      0x0000000000117e40       0x24 binaries/ramread.o
                                         0x50 (size before relaxing)
 .eh_frame      0x0000000000117e64       0x24 binaries/ramwrite.o
                                         0x50 (size before relaxing)
 .eh_frame      0x0000000000117e88       0x24 binaries/lfdballoc.o
                                         0x50 (size before relaxing)
 .eh_frame      0x0000000000117eac       0x24 binaries/lfdbfree.o
                                         0x50 (size before relaxing)
 .eh_frame      0x0000000000117ed0       0x24 binaries/lfflush.o
                                         0x50 (size before relaxing)
 .eh_frame      0x0000000000117ef4       0x20 binaries/lfgetmode.o
                                         0x4c (size before relaxing)
 .eh_frame      0x0000000000117f14       0x24 binaries/lfiballoc.o
                                         0x50 (size before relaxing)
 .eh_frame      0x0000000000117f38       0x20 binaries/lfibclear.o
                                         0x4c (size before relaxing)
 .eh_frame      0x0000000000117f58       0x24 binaries/lfibget.o
                                         0x50 (size before relaxing)
 .eh_frame      0x0000000000117f7c       0x24 binaries/lfibput.o
                                         0x50 (size before relaxing)
 .eh_frame      0x0000000000117fa0       0x24 binaries/lflclose.o
                                         0x50 (size before relaxing)
 .eh_frame      0x0000000000117fc4       0x24 binaries/lflcontrol.o
                                         0x50 (size before relaxing)
 .eh_frame      0x0000000000117fe8       0x24 binaries/lflgetc.o
                                         0x50 (size before relaxing)
 .eh_frame      0x000000000011800c       0x24 binaries/lflinit.o
                                         0x50 (size before relaxing)
 .eh_frame      0x0000000000118030       0x24 binaries/lflputc.o
                                         0x50 (size before relaxing)
 .eh_frame      0x0000000000118054       0x24 binaries/lflread.o
                                         0x50 (size before relaxing)
 .eh_frame      0x0000000000118078       0x24 binaries/lflseek.o
                                         0x50 (size before relaxing)
 .eh_frame      0x000000000011809c       0x24 binaries/lflwrite.o
                                         0x50 (size before relaxing)
 .eh_frame      0x00000000001180c0       0x20 binaries/lfscheck.o
                                         0x4c (size before relaxing)
 .eh_frame      0x00000000001180e0       0x24 binaries/lfsckfmt.o
                                         0x50 (size before relaxing)
 .eh_frame      0x0000000000118104       0x24 binaries/lfscreate.o
                                         0x50 (size before relaxing)
 .eh_frame      0x0000000000118128       0x24 binaries/lfsetup.o
                                         0x50 (size before relaxing)
 .eh_frame      0x000000000011814c       0x24 binaries/lfsinit.o
                                         0x50 (size before relaxing)
 .eh_frame      0x0000000000118170       0x24 binaries/lfsopen.o
                                         0x50 (size before relaxing)
 .eh_frame      0x0000000000118194       0x24 binaries/lftruncate.o
                                         0x50 (size before relaxing)
 .eh_frame      0x00000000001181b8       0x7c binaries/Lab5_vgacontrol.o
                                         0xbc (size before relaxing)
 .eh_frame      0x0000000000118234       0x88 binaries/Lab5_vgacursor.o
                                         0xc8 (size before relaxing)
 .eh_frame      0x00000000001182bc       0x24 binaries/Lab5_vgagetc.o
                                         0x50 (size before relaxing)
 .eh_frame      0x00000000001182e0       0x24 binaries/Lab5_vgahandler.o
                                         0x50 (size before relaxing)
 .eh_frame      0x0000000000118304       0x24 binaries/Lab5_vgainit.o
                                         0x50 (size before relaxing)
 .eh_frame      0x0000000000118328       0x24 binaries/Lab5_vgaputc.o
                                         0x50 (size before relaxing)
 .eh_frame      0x000000000011834c       0x24 binaries/Lab5_vgaread.o
                                         0x50 (size before relaxing)
 .eh_frame      0x0000000000118370       0x24 binaries/Lab5_vgawrite.o
                                         0x50 (size before relaxing)
 .eh_frame      0x0000000000118394       0x24 binaries/Lab5_multiinit.o
                                         0x50 (size before relaxing)
 .eh_frame      0x00000000001183b8       0x24 binaries/Lab5_multiputc.o
                                         0x50 (size before relaxing)
 .eh_frame      0x00000000001183dc       0x24 binaries/Lab5_multiwrite.o
                                         0x50 (size before relaxing)
 .eh_frame      0x0000000000118400       0x24 binaries/disk.o
                                         0x50 (size before relaxing)
 .eh_frame      0x0000000000118424       0x24 binaries/diskflush.o
                                         0x50 (size before relaxing)
 .eh_frame      0x0000000000118448       0x24 binaries/diskgetc.o
                                         0x50 (size before relaxing)
 .eh_frame      0x000000000011846c       0x24 binaries/diskputc.o
                                         0x50 (size before relaxing)
 .eh_frame      0x0000000000118490       0x24 binaries/diskread.o
                                         0x50 (size before relaxing)
 .eh_frame      0x00000000001184b4       0x20 binaries/diskseek.o
                                         0x4c (size before relaxing)
 .eh_frame      0x00000000001184d4       0x24 binaries/diskwrite.o
                                         0x50 (size before relaxing)
 .eh_frame      0x00000000001184f8       0x48 binaries/addargs.o
                                         0x88 (size before relaxing)
 .eh_frame      0x0000000000118540       0x20 binaries/lexan.o
                                         0x4c (size before relaxing)
 .eh_frame      0x0000000000118560       0x2c binaries/shell.o
                                         0x58 (size before relaxing)
 .eh_frame      0x000000000011858c       0x24 binaries/xsh_argecho.o
                                         0x50 (size before relaxing)
 .eh_frame      0x00000000001185b0       0x2c binaries/xsh_cat.o
                                         0x58 (size before relaxing)
 .eh_frame      0x00000000001185dc       0x28 binaries/xsh_clear.o
                                         0x54 (size before relaxing)
 .eh_frame      0x0000000000118604       0x2c binaries/xsh_date.o
                                         0x58 (size before relaxing)
 .eh_frame      0x0000000000118630       0x24 binaries/xsh_devdump.o
                                         0x50 (size before relaxing)
 .eh_frame      0x0000000000118654       0x24 binaries/xsh_echo.o
                                         0x50 (size before relaxing)
 .eh_frame      0x0000000000118678       0x20 binaries/xsh_exit.o
                                         0x4c (size before relaxing)
 .eh_frame      0x0000000000118698       0x2c binaries/xsh_help.o
                                         0x58 (size before relaxing)
 .eh_frame      0x00000000001186c4       0x2c binaries/xsh_kill.o
                                         0x58 (size before relaxing)
 .eh_frame      0x00000000001186f0       0xe8 binaries/xsh_lab2.o
                                        0x114 (size before relaxing)
 .eh_frame      0x00000000001187d8       0xb4 binaries/xsh_lab3.o
                                         0xf4 (size before relaxing)
 .eh_frame      0x000000000011888c       0x24 binaries/xsh_lab4.o
                                         0x50 (size before relaxing)
 .eh_frame      0x00000000001188b0       0x24 binaries/xsh_lab5.o
                                         0x50 (size before relaxing)
 .eh_frame      0x00000000001188d4       0x90 binaries/xsh_lab6.o
                                         0xbc (size before relaxing)
 .eh_frame      0x0000000000118964       0x4c binaries/xsh_memdump.o
                                         0x8c (size before relaxing)
 .eh_frame      0x00000000001189b0       0x74 binaries/xsh_memstat.o
                                         0xa0 (size before relaxing)
 .eh_frame      0x0000000000118a24       0x30 binaries/xsh_ps.o
                                         0x5c (size before relaxing)
 .eh_frame      0x0000000000118a54       0x2c binaries/xsh_sleep.o
                                         0x58 (size before relaxing)
 .eh_frame      0x0000000000118a80       0x2c binaries/xsh_uptime.o
                                         0x58 (size before relaxing)

.iplt           0x0000000000118aac        0x0
 .iplt          0x0000000000118aac        0x0 binaries/start.o

.rel.dyn        0x0000000000118aac        0x0
 .rel.got       0x0000000000118aac        0x0 binaries/start.o
 .rel.iplt      0x0000000000118aac        0x0 binaries/start.o
 .rel.text      0x0000000000118aac        0x0 binaries/start.o

.data           0x0000000000118ac0    0x37540
                0x0000000000118ac0                data = ABSOLUTE (.)
 *(.data .data.*)
 .data          0x0000000000118ac0      0x85e binaries/start.o
                0x0000000000118ac0                gdt
                0x0000000000118b10                idt
                0x0000000000119316                kpgdir
                0x000000000011931a                cpudelay
 *fill*         0x000000000011931e        0x2 
 .data          0x0000000000119320      0x506 binaries/Lab4_alloc_free.o
 *fill*         0x0000000000119826       0x1a 
 .data          0x0000000000119840      0x506 binaries/Lab4_do_stk_expend.o
 *fill*         0x0000000000119d46       0x1a 
 .data          0x0000000000119d60      0x506 binaries/Lab4_fillpgentry.o
 *fill*         0x000000000011a266       0x1a 
 .data          0x000000000011a280      0x506 binaries/Lab4_getheap.o
 *fill*         0x000000000011a786       0x1a 
 .data          0x000000000011a7a0      0x506 binaries/Lab4_invlpg.o
 *fill*         0x000000000011aca6       0x1a 
 .data          0x000000000011acc0      0x506 binaries/Lab4_log2ph.o
 *fill*         0x000000000011b1c6       0x1a 
 .data          0x000000000011b1e0      0x506 binaries/Lab4_memlib.o
 *fill*         0x000000000011b6e6       0x1a 
 .data          0x000000000011b700      0x506 binaries/Lab4_memory_pools.o
 *fill*         0x000000000011bc06       0x1a 
 .data          0x000000000011bc20      0x506 binaries/ascdate.o
 *fill*         0x000000000011c126       0x1a 
 .data.rel.local
                0x000000000011c140       0x88 binaries/ascdate.o
                0x000000000011c140                Date
 *fill*         0x000000000011c1c8       0x18 
 .data          0x000000000011c1e0      0x506 binaries/bufinit.o
 *fill*         0x000000000011c6e6       0x1a 
 .data          0x000000000011c700      0x506 binaries/chprio.o
 *fill*         0x000000000011cc06       0x1a 
 .data          0x000000000011cc20      0x506 binaries/clkhandler.o
 *fill*         0x000000000011d126       0x1a 
 .data          0x000000000011d140      0x506 binaries/clkinit.o
 *fill*         0x000000000011d646       0x1a 
 .data          0x000000000011d660      0x506 binaries/close.o
 *fill*         0x000000000011db66       0x1a 
 .data          0x000000000011db80      0x506 binaries/conf.o
 *fill*         0x000000000011e086       0x1a 
 .data.rel      0x000000000011e0a0      0x2d0 binaries/conf.o
                0x000000000011e0a0                devtab
 *fill*         0x000000000011e370       0x10 
 .data          0x000000000011e380      0x506 binaries/control.o
 *fill*         0x000000000011e886       0x1a 
 .data          0x000000000011e8a0      0x50c binaries/create.o
 *fill*         0x000000000011edac       0x14 
 .data          0x000000000011edc0      0x506 binaries/evec.o
 *fill*         0x000000000011f2c6       0x1a 
 .data.rel.local
                0x000000000011f2e0       0x40 binaries/evec.o
                0x000000000011f2e0                inames
 .data          0x000000000011f320      0x506 binaries/exit.o
 *fill*         0x000000000011f826       0x1a 
 .data          0x000000000011f840      0x506 binaries/freebuf.o
 *fill*         0x000000000011fd46       0x1a 
 .data          0x000000000011fd60      0x506 binaries/freemem.o
 *fill*         0x0000000000120266       0x1a 
 .data          0x0000000000120280      0x506 binaries/getbuf.o
 *fill*         0x0000000000120786       0x1a 
 .data          0x00000000001207a0      0x506 binaries/getc.o
 *fill*         0x0000000000120ca6       0x1a 
 .data          0x0000000000120cc0      0x506 binaries/getdev.o
 *fill*         0x00000000001211c6       0x1a 
 .data          0x00000000001211e0      0x506 binaries/getitem.o
 *fill*         0x00000000001216e6       0x1a 
 .data          0x0000000000121700      0x506 binaries/getmem.o
 *fill*         0x0000000000121c06       0x1a 
 .data          0x0000000000121c20      0x506 binaries/getpid.o
 *fill*         0x0000000000122126       0x1a 
 .data          0x0000000000122140      0x506 binaries/getprio.o
 *fill*         0x0000000000122646       0x1a 
 .data          0x0000000000122660      0x506 binaries/getstk.o
 *fill*         0x0000000000122b66       0x1a 
 .data          0x0000000000122b80      0x506 binaries/getticks.o
 *fill*         0x0000000000123086       0x1a 
 .data          0x00000000001230a0      0x506 binaries/gettime.o
 *fill*         0x00000000001235a6       0x1a 
 .data          0x00000000001235c0      0x506 binaries/getutime.o
 *fill*         0x0000000000123ac6       0x1a 
 .data          0x0000000000123ae0      0x506 binaries/init.o
 *fill*         0x0000000000123fe6       0x1a 
 .data          0x0000000000124000      0x506 binaries/initialize.o
 *fill*         0x0000000000124506       0x1a 
 .data          0x0000000000124520      0x506 binaries/insert.o
 *fill*         0x0000000000124a26       0x1a 
 .data          0x0000000000124a40      0x506 binaries/insertd.o
 *fill*         0x0000000000124f46       0x1a 
 .data          0x0000000000124f60      0x506 binaries/ioerr.o
 *fill*         0x0000000000125466       0x1a 
 .data          0x0000000000125480      0x506 binaries/ionull.o
 *fill*         0x0000000000125986       0x1a 
 .data          0x00000000001259a0      0x506 binaries/kill.o
 *fill*         0x0000000000125ea6       0x1a 
 .data          0x0000000000125ec0      0x506 binaries/kprintf.o
 *fill*         0x00000000001263c6       0x1a 
 .data          0x00000000001263e0      0x506 binaries/main.o
 *fill*         0x00000000001268e6       0x1a 
 .data          0x0000000000126900      0x506 binaries/mark.o
 *fill*         0x0000000000126e06       0x1a 
 .data          0x0000000000126e20      0x506 binaries/mkbufpool.o
 *fill*         0x0000000000127326       0x1a 
 .data          0x0000000000127340      0x508 binaries/newqueue.o
 *fill*         0x0000000000127848       0x18 
 .data          0x0000000000127860      0x506 binaries/open.o
 *fill*         0x0000000000127d66       0x1a 
 .data          0x0000000000127d80      0x506 binaries/panic.o
 *fill*         0x0000000000128286       0x1a 
 .data          0x00000000001282a0      0x506 binaries/platinit.o
 *fill*         0x00000000001287a6       0x1a 
 .data          0x00000000001287c0      0x506 binaries/ptclear.o
 *fill*         0x0000000000128cc6       0x1a 
 .data          0x0000000000128ce0      0x506 binaries/ptcount.o
 *fill*         0x00000000001291e6       0x1a 
 .data          0x0000000000129200      0x506 binaries/ptcreate.o
 *fill*         0x0000000000129706       0x1a 
 .data          0x0000000000129720      0x506 binaries/ptdelete.o
 *fill*         0x0000000000129c26       0x1a 
 .data          0x0000000000129c40      0x506 binaries/ptinit.o
 *fill*         0x000000000012a146       0x1a 
 .data          0x000000000012a160      0x506 binaries/ptrecv.o
 *fill*         0x000000000012a666       0x1a 
 .data          0x000000000012a680      0x506 binaries/ptreset.o
 *fill*         0x000000000012ab86       0x1a 
 .data          0x000000000012aba0      0x506 binaries/ptsend.o
 *fill*         0x000000000012b0a6       0x1a 
 .data          0x000000000012b0c0      0x506 binaries/putc.o
 *fill*         0x000000000012b5c6       0x1a 
 .data          0x000000000012b5e0      0x506 binaries/queue.o
 *fill*         0x000000000012bae6       0x1a 
 .data          0x000000000012bb00      0x506 binaries/read.o
 *fill*         0x000000000012c006       0x1a 
 .data          0x000000000012c020      0x506 binaries/ready.o
 *fill*         0x000000000012c526       0x1a 
 .data          0x000000000012c540      0x506 binaries/receive.o
 *fill*         0x000000000012ca46       0x1a 
 .data          0x000000000012ca60      0x506 binaries/recvclr.o
 *fill*         0x000000000012cf66       0x1a 
 .data          0x000000000012cf80      0x506 binaries/recvtime.o
 *fill*         0x000000000012d486       0x1a 
 .data          0x000000000012d4a0      0x506 binaries/resched.o
 *fill*         0x000000000012d9a6       0x1a 
 .data          0x000000000012d9c0      0x506 binaries/resume.o
 *fill*         0x000000000012dec6       0x1a 
 .data          0x000000000012dee0      0x506 binaries/seek.o
 *fill*         0x000000000012e3e6       0x1a 
 .data          0x000000000012e400      0x506 binaries/semcount.o
 *fill*         0x000000000012e906       0x1a 
 .data          0x000000000012e920      0x506 binaries/semcreate.o
 *fill*         0x000000000012ee26       0x1a 
 .data          0x000000000012ee40      0x506 binaries/semdelete.o
 *fill*         0x000000000012f346       0x1a 
 .data          0x000000000012f360      0x506 binaries/semreset.o
 *fill*         0x000000000012f866       0x1a 
 .data          0x000000000012f880      0x506 binaries/send.o
 *fill*         0x000000000012fd86       0x1a 
 .data          0x000000000012fda0      0x506 binaries/signal.o
 *fill*         0x00000000001302a6       0x1a 
 .data          0x00000000001302c0      0x506 binaries/signaln.o
 *fill*         0x00000000001307c6       0x1a 
 .data          0x00000000001307e0      0x506 binaries/sleep.o
 *fill*         0x0000000000130ce6       0x1a 
 .data          0x0000000000130d00      0x506 binaries/stacktrace.o
 *fill*         0x0000000000131206       0x1a 
 .data          0x0000000000131220      0x506 binaries/suspend.o
 *fill*         0x0000000000131726       0x1a 
 .data          0x0000000000131740      0x506 binaries/unsleep.o
 *fill*         0x0000000000131c46       0x1a 
 .data          0x0000000000131c60      0x506 binaries/userret.o
 *fill*         0x0000000000132166       0x1a 
 .data          0x0000000000132180      0x564 binaries/vminit.o
                0x0000000000132688                bootsign
                0x000000000013268c                bootinfo
                0x00000000001326a0                gdt_copy
                0x00000000001326e0                pgdir
 *fill*         0x00000000001326e4       0x1c 
 .data          0x0000000000132700      0x506 binaries/wait.o
 *fill*         0x0000000000132c06       0x1a 
 .data          0x0000000000132c20      0x506 binaries/wakeup.o
 *fill*         0x0000000000133126       0x1a 
 .data          0x0000000000133140      0x506 binaries/write.o
 *fill*         0x0000000000133646       0x1a 
 .data          0x0000000000133660      0x506 binaries/xdone.o
 *fill*         0x0000000000133b66       0x1a 
 .data          0x0000000000133b80      0x506 binaries/yield.o
 .data          0x0000000000134086        0x0 binaries/abs.o
 .data          0x0000000000134086        0x0 binaries/atoi.o
 .data          0x0000000000134086        0x0 binaries/atol.o
 .data          0x0000000000134086        0x0 binaries/bzero.o
 .data          0x0000000000134086        0x0 binaries/ctype_.o
 .data          0x0000000000134086        0x0 binaries/doprnt.o
 *fill*         0x0000000000134086       0x1a 
 .data          0x00000000001340a0       0x80 binaries/doscan.o
                0x00000000001340a0                _sctab
 .data          0x0000000000134120        0x0 binaries/fdoprnt.o
 .data          0x0000000000134120        0x0 binaries/fgetc.o
 .data          0x0000000000134120        0x0 binaries/fgets.o
 .data          0x0000000000134120      0x506 binaries/fprintf.o
 .data          0x0000000000134626        0x0 binaries/fputc.o
 .data          0x0000000000134626        0x0 binaries/fputs.o
 .data          0x0000000000134626        0x0 binaries/fscanf.o
 *fill*         0x0000000000134626       0x1a 
 .data          0x0000000000134640      0x506 binaries/getchar.o
 .data          0x0000000000134b46        0x0 binaries/labs.o
 .data          0x0000000000134b46        0x0 binaries/memchr.o
 .data          0x0000000000134b46        0x0 binaries/memcmp.o
 .data          0x0000000000134b46        0x0 binaries/memcpy.o
 .data          0x0000000000134b46        0x0 binaries/memset.o
 *fill*         0x0000000000134b46       0x1a 
 .data          0x0000000000134b60      0x506 binaries/printf.o
 *fill*         0x0000000000135066       0x1a 
 .data          0x0000000000135080      0x506 binaries/putchar.o
 .data          0x0000000000135586        0x0 binaries/qsort.o
 *fill*         0x0000000000135586        0x2 
 .data          0x0000000000135588        0x4 binaries/rand.o
 .data          0x000000000013558c        0x0 binaries/sprintf.o
 .data          0x000000000013558c        0x0 binaries/sscanf.o
 .data          0x000000000013558c        0x0 binaries/strchr.o
 .data          0x000000000013558c        0x0 binaries/strcmp.o
 .data          0x000000000013558c        0x0 binaries/strcpy.o
 .data          0x000000000013558c        0x0 binaries/strlen.o
 .data          0x000000000013558c        0x0 binaries/strncat.o
 .data          0x000000000013558c        0x0 binaries/strncmp.o
 .data          0x000000000013558c        0x0 binaries/strncpy.o
 .data          0x000000000013558c        0x0 binaries/strnlen.o
 .data          0x000000000013558c        0x0 binaries/strrchr.o
 .data          0x000000000013558c        0x0 binaries/strstr.o
 *fill*         0x000000000013558c       0x14 
 .data          0x00000000001355a0      0x506 binaries/ttycontrol.o
 *fill*         0x0000000000135aa6       0x1a 
 .data          0x0000000000135ac0      0x506 binaries/ttygetc.o
 *fill*         0x0000000000135fc6       0x1a 
 .data          0x0000000000135fe0      0x506 binaries/ttyhandle_in.o
 *fill*         0x00000000001364e6       0x1a 
 .data          0x0000000000136500      0x506 binaries/ttyhandle_out.o
 *fill*         0x0000000000136a06       0x1a 
 .data          0x0000000000136a20      0x506 binaries/ttyhandler.o
 *fill*         0x0000000000136f26       0x1a 
 .data          0x0000000000136f40      0x506 binaries/ttyinit.o
 *fill*         0x0000000000137446       0x1a 
 .data          0x0000000000137460      0x506 binaries/ttykickout.o
 *fill*         0x0000000000137966       0x1a 
 .data          0x0000000000137980      0x506 binaries/ttyputc.o
 *fill*         0x0000000000137e86       0x1a 
 .data          0x0000000000137ea0      0x506 binaries/ttyread.o
 *fill*         0x00000000001383a6       0x1a 
 .data          0x00000000001383c0      0x506 binaries/ttywrite.o
 *fill*         0x00000000001388c6       0x1a 
 .data          0x00000000001388e0      0x506 binaries/mount.o
 *fill*         0x0000000000138de6       0x1a 
 .data          0x0000000000138e00      0x506 binaries/naminit.o
 *fill*         0x0000000000139306       0x1a 
 .data          0x0000000000139320      0x506 binaries/nammap.o
 *fill*         0x0000000000139826       0x1a 
 .data          0x0000000000139840      0x506 binaries/namopen.o
 *fill*         0x0000000000139d46       0x1a 
 .data          0x0000000000139d60      0x506 binaries/ramclose.o
 *fill*         0x000000000013a266       0x1a 
 .data          0x000000000013a280      0x506 binaries/raminit.o
 *fill*         0x000000000013a786       0x1a 
 .data          0x000000000013a7a0      0x506 binaries/ramopen.o
 *fill*         0x000000000013aca6       0x1a 
 .data          0x000000000013acc0      0x506 binaries/ramread.o
 *fill*         0x000000000013b1c6       0x1a 
 .data          0x000000000013b1e0      0x506 binaries/ramwrite.o
 *fill*         0x000000000013b6e6       0x1a 
 .data          0x000000000013b700      0x506 binaries/lfdballoc.o
 *fill*         0x000000000013bc06       0x1a 
 .data          0x000000000013bc20      0x506 binaries/lfdbfree.o
 *fill*         0x000000000013c126       0x1a 
 .data          0x000000000013c140      0x506 binaries/lfflush.o
 *fill*         0x000000000013c646       0x1a 
 .data          0x000000000013c660      0x506 binaries/lfgetmode.o
 *fill*         0x000000000013cb66       0x1a 
 .data          0x000000000013cb80      0x506 binaries/lfiballoc.o
 *fill*         0x000000000013d086       0x1a 
 .data          0x000000000013d0a0      0x506 binaries/lfibclear.o
 *fill*         0x000000000013d5a6       0x1a 
 .data          0x000000000013d5c0      0x506 binaries/lfibget.o
 *fill*         0x000000000013dac6       0x1a 
 .data          0x000000000013dae0      0x506 binaries/lfibput.o
 *fill*         0x000000000013dfe6       0x1a 
 .data          0x000000000013e000      0x506 binaries/lflclose.o
 *fill*         0x000000000013e506       0x1a 
 .data          0x000000000013e520      0x506 binaries/lflcontrol.o
 *fill*         0x000000000013ea26       0x1a 
 .data          0x000000000013ea40      0x506 binaries/lflgetc.o
 *fill*         0x000000000013ef46       0x1a 
 .data          0x000000000013ef60      0x506 binaries/lflinit.o
 *fill*         0x000000000013f466       0x1a 
 .data          0x000000000013f480      0x506 binaries/lflputc.o
 *fill*         0x000000000013f986       0x1a 
 .data          0x000000000013f9a0      0x506 binaries/lflread.o
 *fill*         0x000000000013fea6       0x1a 
 .data          0x000000000013fec0      0x506 binaries/lflseek.o
 *fill*         0x00000000001403c6       0x1a 
 .data          0x00000000001403e0      0x506 binaries/lflwrite.o
 *fill*         0x00000000001408e6       0x1a 
 .data          0x0000000000140900      0x506 binaries/lfscheck.o
 *fill*         0x0000000000140e06       0x1a 
 .data          0x0000000000140e20      0x506 binaries/lfsckfmt.o
 *fill*         0x0000000000141326       0x1a 
 .data          0x0000000000141340      0x506 binaries/lfscreate.o
 *fill*         0x0000000000141846       0x1a 
 .data          0x0000000000141860      0x506 binaries/lfsetup.o
 *fill*         0x0000000000141d66       0x1a 
 .data          0x0000000000141d80      0x506 binaries/lfsinit.o
 *fill*         0x0000000000142286       0x1a 
 .data          0x00000000001422a0      0x506 binaries/lfsopen.o
 *fill*         0x00000000001427a6       0x1a 
 .data          0x00000000001427c0      0x506 binaries/lftruncate.o
 *fill*         0x0000000000142cc6       0x1a 
 .data          0x0000000000142ce0      0x518 binaries/Lab5_vgacontrol.o
 .data.rel.local
                0x00000000001431f8        0x4 binaries/Lab5_vgacontrol.o
 *fill*         0x00000000001431fc        0x4 
 .data          0x0000000000143200      0x506 binaries/Lab5_vgacursor.o
 *fill*         0x0000000000143706       0x1a 
 .data          0x0000000000143720      0x506 binaries/Lab5_vgagetc.o
 *fill*         0x0000000000143c26       0x1a 
 .data          0x0000000000143c40      0x506 binaries/Lab5_vgahandler.o
 *fill*         0x0000000000144146        0x2 
 .data.rel.local
                0x0000000000144148       0x10 binaries/Lab5_vgahandler.o
 *fill*         0x0000000000144158        0x8 
 .data          0x0000000000144160      0x506 binaries/Lab5_vgainit.o
 *fill*         0x0000000000144666       0x1a 
 .data          0x0000000000144680      0x506 binaries/Lab5_vgaputc.o
 *fill*         0x0000000000144b86       0x1a 
 .data          0x0000000000144ba0      0x506 binaries/Lab5_vgaread.o
 *fill*         0x00000000001450a6       0x1a 
 .data          0x00000000001450c0      0x506 binaries/Lab5_vgawrite.o
 *fill*         0x00000000001455c6       0x1a 
 .data          0x00000000001455e0      0x506 binaries/Lab5_multiinit.o
 *fill*         0x0000000000145ae6       0x1a 
 .data          0x0000000000145b00      0x506 binaries/Lab5_multiputc.o
 *fill*         0x0000000000146006       0x1a 
 .data          0x0000000000146020      0x506 binaries/Lab5_multiwrite.o
 *fill*         0x0000000000146526       0x1a 
 .data          0x0000000000146540      0x506 binaries/disk.o
 *fill*         0x0000000000146a46       0x1a 
 .data          0x0000000000146a60      0x506 binaries/diskflush.o
 *fill*         0x0000000000146f66       0x1a 
 .data          0x0000000000146f80      0x506 binaries/diskgetc.o
 *fill*         0x0000000000147486       0x1a 
 .data          0x00000000001474a0      0x506 binaries/diskputc.o
 *fill*         0x00000000001479a6       0x1a 
 .data          0x00000000001479c0      0x506 binaries/diskread.o
 *fill*         0x0000000000147ec6       0x1a 
 .data          0x0000000000147ee0      0x506 binaries/diskseek.o
 *fill*         0x00000000001483e6       0x1a 
 .data          0x0000000000148400      0x506 binaries/diskwrite.o
 *fill*         0x0000000000148906       0x1a 
 .data          0x0000000000148920      0x506 binaries/addargs.o
 *fill*         0x0000000000148e26       0x1a 
 .data          0x0000000000148e40      0x506 binaries/lexan.o
 *fill*         0x0000000000149346       0x1a 
 .data          0x0000000000149360      0x50c binaries/shell.o
                0x0000000000149868                ncmd
 *fill*         0x000000000014986c       0x14 
 .data.rel.ro   0x0000000000149880      0x108 binaries/shell.o
                0x0000000000149880                cmdtab
 *fill*         0x0000000000149988       0x18 
 .data          0x00000000001499a0      0x506 binaries/xsh_argecho.o
 *fill*         0x0000000000149ea6       0x1a 
 .data          0x0000000000149ec0      0x506 binaries/xsh_cat.o
 *fill*         0x000000000014a3c6       0x1a 
 .data          0x000000000014a3e0      0x506 binaries/xsh_clear.o
 *fill*         0x000000000014a8e6       0x1a 
 .data          0x000000000014a900      0x506 binaries/xsh_date.o
 *fill*         0x000000000014ae06       0x1a 
 .data          0x000000000014ae20      0x506 binaries/xsh_devdump.o
 *fill*         0x000000000014b326       0x1a 
 .data          0x000000000014b340      0x506 binaries/xsh_echo.o
 *fill*         0x000000000014b846       0x1a 
 .data          0x000000000014b860      0x506 binaries/xsh_exit.o
 *fill*         0x000000000014bd66       0x1a 
 .data          0x000000000014bd80      0x506 binaries/xsh_help.o
 *fill*         0x000000000014c286       0x1a 
 .data          0x000000000014c2a0      0x506 binaries/xsh_kill.o
 *fill*         0x000000000014c7a6       0x1a 
 .data          0x000000000014c7c0      0x506 binaries/xsh_lab2.o
 *fill*         0x000000000014ccc6       0x1a 
 .data          0x000000000014cce0      0x506 binaries/xsh_lab3.o
 *fill*         0x000000000014d1e6       0x1a 
 .data          0x000000000014d200      0x506 binaries/xsh_lab4.o
 *fill*         0x000000000014d706       0x1a 
 .data          0x000000000014d720      0x506 binaries/xsh_lab5.o
 *fill*         0x000000000014dc26       0x1a 
 .data          0x000000000014dc40      0x506 binaries/xsh_lab6.o
 *fill*         0x000000000014e146       0x1a 
 .data          0x000000000014e160      0x506 binaries/xsh_memdump.o
 *fill*         0x000000000014e666       0x1a 
 .data          0x000000000014e680      0x506 binaries/xsh_memstat.o
 *fill*         0x000000000014eb86       0x1a 
 .data          0x000000000014eba0      0x540 binaries/xsh_ps.o
 .data          0x000000000014f0e0      0x506 binaries/xsh_sleep.o
 *fill*         0x000000000014f5e6       0x1a 
 .data          0x000000000014f600      0x506 binaries/xsh_uptime.o
 .data          0x000000000014fb06        0x0 binaries/Lab3_create.o
 .data          0x000000000014fb06        0x0 binaries/Lab3_fprintf.o
 .data          0x000000000014fb06        0x0 binaries/Lab3_ltss.o
 .data          0x000000000014fb06        0x0 binaries/Lab3_printf.o
 .data          0x000000000014fb06        0x0 binaries/Lab3_read.o
 .data          0x000000000014fb06        0x0 binaries/Lab3_receive.o
 .data          0x000000000014fb06        0x0 binaries/Lab3_recvclr.o
 .data          0x000000000014fb06        0x0 binaries/Lab3_resume.o
 .data          0x000000000014fb06        0x0 binaries/Lab3_ret_k2u.o
 .data          0x000000000014fb06        0x0 binaries/Lab3_ret_u2k.o
 .data          0x000000000014fb06        0x0 binaries/Lab3_sleep.o
 .data          0x000000000014fb06        0x0 binaries/Lab3_sleepms.o
 .data          0x000000000014fb06        0x0 binaries/Lab4_addargs.o
 .data          0x000000000014fb06        0x0 binaries/Lab4_malloc_free.o
 .data          0x000000000014fb06        0x0 binaries/Lab6_load_code.o
 .data          0x000000000014fb06        0x0 binaries/Lab6_seek.o
 .data          0x000000000014fb06        0x0 binaries/clkdisp.o
 .data          0x000000000014fb06        0x0 binaries/ctxsw.o
 .data          0x000000000014fb06        0x0 binaries/intr.o
                0x000000000014fb06                _saveint
 .data          0x000000000014fb06        0x0 binaries/ttydispatch.o
 .data          0x000000000014fb06        0x0 binaries/Lab5_vgadispatch.o
 .data          0x000000000014fb06        0x0 binaries/Lab5_multidispatch.o
                0x000000000014fb06                edata = ABSOLUTE (.)
                0x0000000000150000                . = ALIGN (0x1000)
 *fill*         0x000000000014fb06      0x4fa 

.got            0x0000000000150000        0x0
 .got           0x0000000000150000        0x0 binaries/start.o

.got.plt        0x0000000000150000        0xc
 .got.plt       0x0000000000150000        0xc binaries/start.o
                0x0000000000150000                _GLOBAL_OFFSET_TABLE_

.igot.plt       0x000000000015000c        0x0
 .igot.plt      0x000000000015000c        0x0 binaries/start.o

.bss            0x0000000000150020    0x1ffe0
                0x0000000000150020                bss = ABSOLUTE (.)
 *(.bss .bss.*)
 .bss           0x0000000000150020        0x0 binaries/start.o
 .bss           0x0000000000150020        0x0 binaries/Lab4_alloc_free.o
 .bss           0x0000000000150020        0x0 binaries/Lab4_do_stk_expend.o
 .bss           0x0000000000150020        0x0 binaries/Lab4_fillpgentry.o
 .bss           0x0000000000150020        0x0 binaries/Lab4_getheap.o
 .bss           0x0000000000150020        0x0 binaries/Lab4_invlpg.o
 .bss           0x0000000000150020        0x0 binaries/Lab4_log2ph.o
 .bss           0x0000000000150020        0xc binaries/Lab4_memlib.o
 .bss           0x000000000015002c        0x0 binaries/Lab4_memory_pools.o
 .bss           0x000000000015002c        0x0 binaries/ascdate.o
 .bss           0x000000000015002c        0x0 binaries/bufinit.o
 .bss           0x000000000015002c        0x0 binaries/chprio.o
 .bss           0x000000000015002c        0x0 binaries/clkhandler.o
 .bss           0x000000000015002c        0x0 binaries/clkinit.o
 .bss           0x000000000015002c        0x0 binaries/close.o
 .bss           0x000000000015002c        0x0 binaries/conf.o
 .bss           0x000000000015002c        0x0 binaries/control.o
 .bss           0x000000000015002c        0x0 binaries/create.o
 .bss           0x000000000015002c        0x0 binaries/evec.o
 .bss           0x000000000015002c        0x0 binaries/exit.o
 .bss           0x000000000015002c        0x0 binaries/freebuf.o
 .bss           0x000000000015002c        0x0 binaries/freemem.o
 .bss           0x000000000015002c        0x0 binaries/getbuf.o
 .bss           0x000000000015002c        0x0 binaries/getc.o
 .bss           0x000000000015002c        0x0 binaries/getdev.o
 .bss           0x000000000015002c        0x0 binaries/getitem.o
 .bss           0x000000000015002c        0x0 binaries/getmem.o
 .bss           0x000000000015002c        0x0 binaries/getpid.o
 .bss           0x000000000015002c        0x0 binaries/getprio.o
 .bss           0x000000000015002c        0x0 binaries/getstk.o
 .bss           0x000000000015002c        0x0 binaries/getticks.o
 .bss           0x000000000015002c        0x0 binaries/gettime.o
 .bss           0x000000000015002c        0x0 binaries/getutime.o
 .bss           0x000000000015002c        0x0 binaries/init.o
 .bss           0x000000000015002c        0x0 binaries/initialize.o
 .bss           0x000000000015002c        0x0 binaries/insert.o
 .bss           0x000000000015002c        0x0 binaries/insertd.o
 .bss           0x000000000015002c        0x0 binaries/ioerr.o
 .bss           0x000000000015002c        0x0 binaries/ionull.o
 .bss           0x000000000015002c        0x0 binaries/kill.o
 .bss           0x000000000015002c        0x0 binaries/kprintf.o
 .bss           0x000000000015002c        0x0 binaries/main.o
 .bss           0x000000000015002c        0x0 binaries/mark.o
 .bss           0x000000000015002c        0x0 binaries/mkbufpool.o
 .bss           0x000000000015002c        0x0 binaries/newqueue.o
 .bss           0x000000000015002c        0x0 binaries/open.o
 .bss           0x000000000015002c        0x0 binaries/panic.o
 .bss           0x000000000015002c        0x0 binaries/platinit.o
 .bss           0x000000000015002c        0x0 binaries/ptclear.o
 .bss           0x000000000015002c        0x0 binaries/ptcount.o
 .bss           0x000000000015002c        0x0 binaries/ptcreate.o
 .bss           0x000000000015002c        0x0 binaries/ptdelete.o
 .bss           0x000000000015002c        0x0 binaries/ptinit.o
 .bss           0x000000000015002c        0x0 binaries/ptrecv.o
 .bss           0x000000000015002c        0x0 binaries/ptreset.o
 .bss           0x000000000015002c        0x0 binaries/ptsend.o
 .bss           0x000000000015002c        0x0 binaries/putc.o
 .bss           0x000000000015002c        0x0 binaries/queue.o
 .bss           0x000000000015002c        0x0 binaries/read.o
 .bss           0x000000000015002c        0x0 binaries/ready.o
 .bss           0x000000000015002c        0x0 binaries/receive.o
 .bss           0x000000000015002c        0x0 binaries/recvclr.o
 .bss           0x000000000015002c        0x0 binaries/recvtime.o
 .bss           0x000000000015002c        0x0 binaries/resched.o
 .bss           0x000000000015002c        0x0 binaries/resume.o
 .bss           0x000000000015002c        0x0 binaries/seek.o
 .bss           0x000000000015002c        0x0 binaries/semcount.o
 .bss           0x000000000015002c        0x4 binaries/semcreate.o
 .bss           0x0000000000150030        0x0 binaries/semdelete.o
 .bss           0x0000000000150030        0x0 binaries/semreset.o
 .bss           0x0000000000150030        0x0 binaries/send.o
 .bss           0x0000000000150030        0x0 binaries/signal.o
 .bss           0x0000000000150030        0x0 binaries/signaln.o
 .bss           0x0000000000150030        0x0 binaries/sleep.o
 .bss           0x0000000000150030        0x0 binaries/stacktrace.o
 .bss           0x0000000000150030        0x0 binaries/suspend.o
 .bss           0x0000000000150030        0x0 binaries/unsleep.o
 .bss           0x0000000000150030        0x0 binaries/userret.o
 .bss           0x0000000000150030        0x0 binaries/vminit.o
 .bss           0x0000000000150030        0x0 binaries/wait.o
 .bss           0x0000000000150030        0x0 binaries/wakeup.o
 .bss           0x0000000000150030        0x0 binaries/write.o
 .bss           0x0000000000150030        0x0 binaries/xdone.o
 .bss           0x0000000000150030        0x0 binaries/yield.o
 .bss           0x0000000000150030        0x0 binaries/abs.o
 .bss           0x0000000000150030        0x0 binaries/atoi.o
 .bss           0x0000000000150030        0x0 binaries/atol.o
 .bss           0x0000000000150030        0x0 binaries/bzero.o
 .bss           0x0000000000150030        0x0 binaries/ctype_.o
 .bss           0x0000000000150030        0x0 binaries/doprnt.o
 .bss           0x0000000000150030        0x0 binaries/doscan.o
 .bss           0x0000000000150030        0x0 binaries/fdoprnt.o
 .bss           0x0000000000150030        0x0 binaries/fgetc.o
 .bss           0x0000000000150030        0x0 binaries/fgets.o
 .bss           0x0000000000150030        0x0 binaries/fprintf.o
 .bss           0x0000000000150030        0x0 binaries/fputc.o
 .bss           0x0000000000150030        0x0 binaries/fputs.o
 .bss           0x0000000000150030        0x0 binaries/fscanf.o
 .bss           0x0000000000150030        0x0 binaries/getchar.o
 .bss           0x0000000000150030        0x0 binaries/labs.o
 .bss           0x0000000000150030        0x0 binaries/memchr.o
 .bss           0x0000000000150030        0x0 binaries/memcmp.o
 .bss           0x0000000000150030        0x0 binaries/memcpy.o
 .bss           0x0000000000150030        0x0 binaries/memset.o
 .bss           0x0000000000150030        0x0 binaries/printf.o
 .bss           0x0000000000150030        0x0 binaries/putchar.o
 .bss           0x0000000000150030        0x8 binaries/qsort.o
 .bss           0x0000000000150038        0x0 binaries/rand.o
 .bss           0x0000000000150038        0x0 binaries/sprintf.o
 .bss           0x0000000000150038        0x0 binaries/sscanf.o
 .bss           0x0000000000150038        0x0 binaries/strchr.o
 .bss           0x0000000000150038        0x0 binaries/strcmp.o
 .bss           0x0000000000150038        0x0 binaries/strcpy.o
 .bss           0x0000000000150038        0x0 binaries/strlen.o
 .bss           0x0000000000150038        0x0 binaries/strncat.o
 .bss           0x0000000000150038        0x0 binaries/strncmp.o
 .bss           0x0000000000150038        0x0 binaries/strncpy.o
 .bss           0x0000000000150038        0x0 binaries/strnlen.o
 .bss           0x0000000000150038        0x0 binaries/strrchr.o
 .bss           0x0000000000150038        0x0 binaries/strstr.o
 .bss           0x0000000000150038        0x0 binaries/ttycontrol.o
 .bss           0x0000000000150038        0x0 binaries/ttygetc.o
 .bss           0x0000000000150038        0x0 binaries/ttyhandle_in.o
 .bss           0x0000000000150038        0x0 binaries/ttyhandle_out.o
 .bss           0x0000000000150038        0x0 binaries/ttyhandler.o
 .bss           0x0000000000150038        0x0 binaries/ttyinit.o
 .bss           0x0000000000150038        0x0 binaries/ttykickout.o
 .bss           0x0000000000150038        0x0 binaries/ttyputc.o
 .bss           0x0000000000150038        0x0 binaries/ttyread.o
 .bss           0x0000000000150038        0x0 binaries/ttywrite.o
 .bss           0x0000000000150038        0x0 binaries/mount.o
 .bss           0x0000000000150038        0x0 binaries/naminit.o
 .bss           0x0000000000150038        0x0 binaries/nammap.o
 .bss           0x0000000000150038        0x0 binaries/namopen.o
 .bss           0x0000000000150038        0x0 binaries/ramclose.o
 .bss           0x0000000000150038        0x0 binaries/raminit.o
 .bss           0x0000000000150038        0x0 binaries/ramopen.o
 .bss           0x0000000000150038        0x0 binaries/ramread.o
 .bss           0x0000000000150038        0x0 binaries/ramwrite.o
 .bss           0x0000000000150038        0x0 binaries/lfdballoc.o
 .bss           0x0000000000150038        0x0 binaries/lfdbfree.o
 .bss           0x0000000000150038        0x0 binaries/lfflush.o
 .bss           0x0000000000150038        0x0 binaries/lfgetmode.o
 .bss           0x0000000000150038        0x0 binaries/lfiballoc.o
 .bss           0x0000000000150038        0x0 binaries/lfibclear.o
 .bss           0x0000000000150038        0x0 binaries/lfibget.o
 .bss           0x0000000000150038        0x0 binaries/lfibput.o
 .bss           0x0000000000150038        0x0 binaries/lflclose.o
 .bss           0x0000000000150038        0x0 binaries/lflcontrol.o
 .bss           0x0000000000150038        0x0 binaries/lflgetc.o
 .bss           0x0000000000150038        0x0 binaries/lflinit.o
 .bss           0x0000000000150038        0x0 binaries/lflputc.o
 .bss           0x0000000000150038        0x0 binaries/lflread.o
 .bss           0x0000000000150038        0x0 binaries/lflseek.o
 .bss           0x0000000000150038        0x0 binaries/lflwrite.o
 .bss           0x0000000000150038        0x0 binaries/lfscheck.o
 .bss           0x0000000000150038        0x0 binaries/lfsckfmt.o
 .bss           0x0000000000150038        0x0 binaries/lfscreate.o
 .bss           0x0000000000150038        0x0 binaries/lfsetup.o
 .bss           0x0000000000150038        0x0 binaries/lfsinit.o
 .bss           0x0000000000150038        0x0 binaries/lfsopen.o
 .bss           0x0000000000150038        0x0 binaries/lftruncate.o
 *fill*         0x0000000000150038        0x8 
 .bss           0x0000000000150040       0x60 binaries/Lab5_vgacontrol.o
 .bss           0x00000000001500a0        0x0 binaries/Lab5_vgacursor.o
 .bss           0x00000000001500a0        0x0 binaries/Lab5_vgagetc.o
 .bss           0x00000000001500a0        0x4 binaries/Lab5_vgahandler.o
 .bss           0x00000000001500a4        0x0 binaries/Lab5_vgainit.o
 .bss           0x00000000001500a4        0x0 binaries/Lab5_vgaputc.o
 .bss           0x00000000001500a4        0x0 binaries/Lab5_vgaread.o
 .bss           0x00000000001500a4        0x0 binaries/Lab5_vgawrite.o
 .bss           0x00000000001500a4        0x0 binaries/Lab5_multiinit.o
 .bss           0x00000000001500a4        0x0 binaries/Lab5_multiputc.o
 .bss           0x00000000001500a4        0x0 binaries/Lab5_multiwrite.o
 .bss           0x00000000001500a4        0x0 binaries/disk.o
 .bss           0x00000000001500a4        0x0 binaries/diskflush.o
 .bss           0x00000000001500a4        0x0 binaries/diskgetc.o
 .bss           0x00000000001500a4        0x0 binaries/diskputc.o
 .bss           0x00000000001500a4        0x0 binaries/diskread.o
 .bss           0x00000000001500a4        0x0 binaries/diskseek.o
 .bss           0x00000000001500a4        0x0 binaries/diskwrite.o
 .bss           0x00000000001500a4        0x0 binaries/addargs.o
 .bss           0x00000000001500a4        0x0 binaries/lexan.o
 .bss           0x00000000001500a4        0x0 binaries/shell.o
 .bss           0x00000000001500a4        0x0 binaries/xsh_argecho.o
 .bss           0x00000000001500a4        0x0 binaries/xsh_cat.o
 .bss           0x00000000001500a4        0x0 binaries/xsh_clear.o
 .bss           0x00000000001500a4        0x0 binaries/xsh_date.o
 .bss           0x00000000001500a4        0x0 binaries/xsh_devdump.o
 .bss           0x00000000001500a4        0x0 binaries/xsh_echo.o
 .bss           0x00000000001500a4        0x0 binaries/xsh_exit.o
 .bss           0x00000000001500a4        0x0 binaries/xsh_help.o
 .bss           0x00000000001500a4        0x0 binaries/xsh_kill.o
 .bss           0x00000000001500a4        0x0 binaries/xsh_lab2.o
 .bss           0x00000000001500a4        0x0 binaries/xsh_lab3.o
 .bss           0x00000000001500a4        0x0 binaries/xsh_lab4.o
 .bss           0x00000000001500a4        0x0 binaries/xsh_lab5.o
 .bss           0x00000000001500a4        0x0 binaries/xsh_lab6.o
 .bss           0x00000000001500a4        0x0 binaries/xsh_memdump.o
 .bss           0x00000000001500a4        0x0 binaries/xsh_memstat.o
 .bss           0x00000000001500a4        0x0 binaries/xsh_ps.o
 .bss           0x00000000001500a4        0x0 binaries/xsh_sleep.o
 .bss           0x00000000001500a4        0x0 binaries/xsh_uptime.o
 .bss           0x00000000001500a4        0x0 binaries/Lab3_create.o
 .bss           0x00000000001500a4        0x0 binaries/Lab3_fprintf.o
 .bss           0x00000000001500a4        0x0 binaries/Lab3_ltss.o
 .bss           0x00000000001500a4        0x0 binaries/Lab3_printf.o
 .bss           0x00000000001500a4        0x0 binaries/Lab3_read.o
 .bss           0x00000000001500a4        0x0 binaries/Lab3_receive.o
 .bss           0x00000000001500a4        0x0 binaries/Lab3_recvclr.o
 .bss           0x00000000001500a4        0x0 binaries/Lab3_resume.o
 .bss           0x00000000001500a4        0x0 binaries/Lab3_ret_k2u.o
 .bss           0x00000000001500a4        0x0 binaries/Lab3_ret_u2k.o
 .bss           0x00000000001500a4        0x0 binaries/Lab3_sleep.o
 .bss           0x00000000001500a4        0x0 binaries/Lab3_sleepms.o
 .bss           0x00000000001500a4        0x0 binaries/Lab4_addargs.o
 .bss           0x00000000001500a4        0x0 binaries/Lab4_malloc_free.o
 .bss           0x00000000001500a4        0x0 binaries/Lab6_load_code.o
 .bss           0x00000000001500a4        0x0 binaries/Lab6_seek.o
 .bss           0x00000000001500a4        0x0 binaries/clkdisp.o
 .bss           0x00000000001500a4        0x0 binaries/ctxsw.o
 .bss           0x00000000001500a4        0x0 binaries/intr.o
 .bss           0x00000000001500a4        0x0 binaries/ttydispatch.o
 .bss           0x00000000001500a4        0x0 binaries/Lab5_vgadispatch.o
 .bss           0x00000000001500a4        0x0 binaries/Lab5_multidispatch.o
 *(COMMON)
 *fill*         0x00000000001500a4       0x1c 
 COMMON         0x00000000001500c0       0x68 binaries/Lab4_alloc_free.o
                0x00000000001500c0                TSS
 *fill*         0x0000000000150128       0x18 
 COMMON         0x0000000000150140       0xf4 binaries/bufinit.o
                0x0000000000150140                buftab
                0x0000000000150230                nbpools
 COMMON         0x0000000000150234       0x10 binaries/clkinit.o
                0x0000000000150234                sleepq
                0x0000000000150238                preempt
                0x000000000015023c                count1000
                0x0000000000150240                clktime
 COMMON         0x0000000000150244        0x2 binaries/evec.o
                0x0000000000150244                girmask
 *fill*         0x0000000000150246       0x1a 
 COMMON         0x0000000000150260     0x2298 binaries/initialize.o
                0x0000000000150260                currpid
                0x0000000000150280                proctab
                0x0000000000152030                prcount
                0x0000000000152040                semtab
                0x00000000001524f0                memlist
 *fill*         0x00000000001524f8        0x8 
 COMMON         0x0000000000152500       0x58 binaries/mark.o
                0x0000000000152500                marks
                0x0000000000152550                nmarks
                0x0000000000152554                mkmutex
 *fill*         0x0000000000152558        0x8 
 COMMON         0x0000000000152560      0x2d8 binaries/ptinit.o
                0x0000000000152560                porttab
                0x0000000000152830                ptnextid
                0x0000000000152834                ptfree
 *fill*         0x0000000000152838        0x8 
 COMMON         0x0000000000152840      0x980 binaries/queue.o
                0x0000000000152840                queuetab
 COMMON         0x00000000001531c0        0x2 binaries/ready.o
                0x00000000001531c0                readylist
 *fill*         0x00000000001531c2        0x2 
 COMMON         0x00000000001531c4        0x8 binaries/resched.o
                0x00000000001531c4                Defer
 COMMON         0x00000000001531cc       0x14 binaries/vminit.o
                0x00000000001531cc                minheap
                0x00000000001531d0                maxheap
                0x00000000001531d4                kpg
                0x00000000001531dc                freelist
 COMMON         0x00000000001531e0      0x110 binaries/ttyinit.o
                0x00000000001531e0                ttytab
 *fill*         0x00000000001532f0       0x10 
 COMMON         0x0000000000153300     0x19c0 binaries/naminit.o
                0x0000000000153300                nnames
                0x0000000000153320                nametab
 COMMON         0x0000000000154cc0    0x19000 binaries/raminit.o
                0x0000000000154cc0                Ram
 COMMON         0x000000000016dcc0      0xf00 binaries/lflinit.o
                0x000000000016dcc0                lfltab
 COMMON         0x000000000016ebc0      0x20c binaries/lfsinit.o
                0x000000000016ebc0                Lf_data
 *fill*         0x000000000016edcc       0x14 
 COMMON         0x000000000016ede0       0x90 binaries/Lab5_vgainit.o
                0x000000000016ede0                kbdcb
 *fill*         0x000000000016ee70       0x10 
 COMMON         0x000000000016ee80      0x20c binaries/disk.o
                0x000000000016ee80                disktab
                0x000000000016f08c                ebss = ABSOLUTE (.)
                0x0000000000170000                . = ALIGN (0x1000)
 *fill*         0x000000000016f08c      0xf74 
 */()
                0x0000000000170000                end = ABSOLUTE (.)
                0x0000000000170000                _end = ABSOLUTE (.)
                0x0000000000170000                . = ALIGN (0x1000)
LOAD binaries/start.o
LOAD binaries/Lab4_alloc_free.o
LOAD binaries/Lab4_do_stk_expend.o
LOAD binaries/Lab4_fillpgentry.o
LOAD binaries/Lab4_getheap.o
LOAD binaries/Lab4_invlpg.o
LOAD binaries/Lab4_log2ph.o
LOAD binaries/Lab4_memlib.o
LOAD binaries/Lab4_memory_pools.o
LOAD binaries/ascdate.o
LOAD binaries/bufinit.o
LOAD binaries/chprio.o
LOAD binaries/clkhandler.o
LOAD binaries/clkinit.o
LOAD binaries/close.o
LOAD binaries/conf.o
LOAD binaries/control.o
LOAD binaries/create.o
LOAD binaries/evec.o
LOAD binaries/exit.o
LOAD binaries/freebuf.o
LOAD binaries/freemem.o
LOAD binaries/getbuf.o
LOAD binaries/getc.o
LOAD binaries/getdev.o
LOAD binaries/getitem.o
LOAD binaries/getmem.o
LOAD binaries/getpid.o
LOAD binaries/getprio.o
LOAD binaries/getstk.o
LOAD binaries/getticks.o
LOAD binaries/gettime.o
LOAD binaries/getutime.o
LOAD binaries/init.o
LOAD binaries/initialize.o
LOAD binaries/insert.o
LOAD binaries/insertd.o
LOAD binaries/ioerr.o
LOAD binaries/ionull.o
LOAD binaries/kill.o
LOAD binaries/kprintf.o
LOAD binaries/main.o
LOAD binaries/mark.o
LOAD binaries/mkbufpool.o
LOAD binaries/newqueue.o
LOAD binaries/open.o
LOAD binaries/panic.o
LOAD binaries/platinit.o
LOAD binaries/ptclear.o
LOAD binaries/ptcount.o
LOAD binaries/ptcreate.o
LOAD binaries/ptdelete.o
LOAD binaries/ptinit.o
LOAD binaries/ptrecv.o
LOAD binaries/ptreset.o
LOAD binaries/ptsend.o
LOAD binaries/putc.o
LOAD binaries/queue.o
LOAD binaries/read.o
LOAD binaries/ready.o
LOAD binaries/receive.o
LOAD binaries/recvclr.o
LOAD binaries/recvtime.o
LOAD binaries/resched.o
LOAD binaries/resume.o
LOAD binaries/seek.o
LOAD binaries/semcount.o
LOAD binaries/semcreate.o
LOAD binaries/semdelete.o
LOAD binaries/semreset.o
LOAD binaries/send.o
LOAD binaries/signal.o
LOAD binaries/signaln.o
LOAD binaries/sleep.o
LOAD binaries/stacktrace.o
LOAD binaries/suspend.o
LOAD binaries/unsleep.o
LOAD binaries/userret.o
LOAD binaries/vminit.o
LOAD binaries/wait.o
LOAD binaries/wakeup.o
LOAD binaries/write.o
LOAD binaries/xdone.o
LOAD binaries/yield.o
LOAD binaries/abs.o
LOAD binaries/atoi.o
LOAD binaries/atol.o
LOAD binaries/bzero.o
LOAD binaries/ctype_.o
LOAD binaries/doprnt.o
LOAD binaries/doscan.o
LOAD binaries/fdoprnt.o
LOAD binaries/fgetc.o
LOAD binaries/fgets.o
LOAD binaries/fprintf.o
LOAD binaries/fputc.o
LOAD binaries/fputs.o
LOAD binaries/fscanf.o
LOAD binaries/getchar.o
LOAD binaries/labs.o
LOAD binaries/memchr.o
LOAD binaries/memcmp.o
LOAD binaries/memcpy.o
LOAD binaries/memset.o
LOAD binaries/printf.o
LOAD binaries/putchar.o
LOAD binaries/qsort.o
LOAD binaries/rand.o
LOAD binaries/sprintf.o
LOAD binaries/sscanf.o
LOAD binaries/strchr.o
LOAD binaries/strcmp.o
LOAD binaries/strcpy.o
LOAD binaries/strlen.o
LOAD binaries/strncat.o
LOAD binaries/strncmp.o
LOAD binaries/strncpy.o
LOAD binaries/strnlen.o
LOAD binaries/strrchr.o
LOAD binaries/strstr.o
LOAD binaries/ttycontrol.o
LOAD binaries/ttygetc.o
LOAD binaries/ttyhandle_in.o
LOAD binaries/ttyhandle_out.o
LOAD binaries/ttyhandler.o
LOAD binaries/ttyinit.o
LOAD binaries/ttykickout.o
LOAD binaries/ttyputc.o
LOAD binaries/ttyread.o
LOAD binaries/ttywrite.o
LOAD binaries/mount.o
LOAD binaries/naminit.o
LOAD binaries/nammap.o
LOAD binaries/namopen.o
LOAD binaries/ramclose.o
LOAD binaries/raminit.o
LOAD binaries/ramopen.o
LOAD binaries/ramread.o
LOAD binaries/ramwrite.o
LOAD binaries/lfdballoc.o
LOAD binaries/lfdbfree.o
LOAD binaries/lfflush.o
LOAD binaries/lfgetmode.o
LOAD binaries/lfiballoc.o
LOAD binaries/lfibclear.o
LOAD binaries/lfibget.o
LOAD binaries/lfibput.o
LOAD binaries/lflclose.o
LOAD binaries/lflcontrol.o
LOAD binaries/lflgetc.o
LOAD binaries/lflinit.o
LOAD binaries/lflputc.o
LOAD binaries/lflread.o
LOAD binaries/lflseek.o
LOAD binaries/lflwrite.o
LOAD binaries/lfscheck.o
LOAD binaries/lfsckfmt.o
LOAD binaries/lfscreate.o
LOAD binaries/lfsetup.o
LOAD binaries/lfsinit.o
LOAD binaries/lfsopen.o
LOAD binaries/lftruncate.o
LOAD binaries/Lab5_vgacontrol.o
LOAD binaries/Lab5_vgacursor.o
LOAD binaries/Lab5_vgagetc.o
LOAD binaries/Lab5_vgahandler.o
LOAD binaries/Lab5_vgainit.o
LOAD binaries/Lab5_vgaputc.o
LOAD binaries/Lab5_vgaread.o
LOAD binaries/Lab5_vgawrite.o
LOAD binaries/Lab5_multiinit.o
LOAD binaries/Lab5_multiputc.o
LOAD binaries/Lab5_multiwrite.o
LOAD binaries/disk.o
LOAD binaries/diskflush.o
LOAD binaries/diskgetc.o
LOAD binaries/diskputc.o
LOAD binaries/diskread.o
LOAD binaries/diskseek.o
LOAD binaries/diskwrite.o
LOAD binaries/addargs.o
LOAD binaries/lexan.o
LOAD binaries/shell.o
LOAD binaries/xsh_argecho.o
LOAD binaries/xsh_cat.o
LOAD binaries/xsh_clear.o
LOAD binaries/xsh_date.o
LOAD binaries/xsh_devdump.o
LOAD binaries/xsh_echo.o
LOAD binaries/xsh_exit.o
LOAD binaries/xsh_help.o
LOAD binaries/xsh_kill.o
LOAD binaries/xsh_lab2.o
LOAD binaries/xsh_lab3.o
LOAD binaries/xsh_lab4.o
LOAD binaries/xsh_lab5.o
LOAD binaries/xsh_lab6.o
LOAD binaries/xsh_memdump.o
LOAD binaries/xsh_memstat.o
LOAD binaries/xsh_ps.o
LOAD binaries/xsh_sleep.o
LOAD binaries/xsh_uptime.o
LOAD binaries/Lab3_create.o
LOAD binaries/Lab3_fprintf.o
LOAD binaries/Lab3_ltss.o
LOAD binaries/Lab3_printf.o
LOAD binaries/Lab3_read.o
LOAD binaries/Lab3_receive.o
LOAD binaries/Lab3_recvclr.o
LOAD binaries/Lab3_resume.o
LOAD binaries/Lab3_ret_k2u.o
LOAD binaries/Lab3_ret_u2k.o
LOAD binaries/Lab3_sleep.o
LOAD binaries/Lab3_sleepms.o
LOAD binaries/Lab4_addargs.o
LOAD binaries/Lab4_malloc_free.o
LOAD binaries/Lab6_load_code.o
LOAD binaries/Lab6_seek.o
LOAD binaries/clkdisp.o
LOAD binaries/ctxsw.o
LOAD binaries/intr.o
LOAD binaries/ttydispatch.o
LOAD binaries/Lab5_vgadispatch.o
LOAD binaries/Lab5_multidispatch.o
OUTPUT(../compile/xinu.elf elf32-i386)

.debug_line     0x0000000000000000    0x15cf1
 .debug_line    0x0000000000000000       0xbe binaries/start.o
 .debug_line    0x00000000000000be      0x193 binaries/Lab4_alloc_free.o
 .debug_line    0x0000000000000251      0x1e4 binaries/Lab4_do_stk_expend.o
 .debug_line    0x0000000000000435      0x237 binaries/Lab4_fillpgentry.o
 .debug_line    0x000000000000066c      0x1b8 binaries/Lab4_getheap.o
 .debug_line    0x0000000000000824      0x151 binaries/Lab4_invlpg.o
 .debug_line    0x0000000000000975      0x19c binaries/Lab4_log2ph.o
 .debug_line    0x0000000000000b11      0x1d0 binaries/Lab4_memlib.o
 .debug_line    0x0000000000000ce1     0x1011 binaries/Lab4_memory_pools.o
 .debug_line    0x0000000000001cf2      0x308 binaries/ascdate.o
 .debug_line    0x0000000000001ffa      0x152 binaries/bufinit.o
 .debug_line    0x000000000000214c      0x176 binaries/chprio.o
 .debug_line    0x00000000000022c2      0x191 binaries/clkhandler.o
 .debug_line    0x0000000000002453      0x170 binaries/clkinit.o
 .debug_line    0x00000000000025c3      0x168 binaries/close.o
 .debug_line    0x000000000000272b      0x134 binaries/conf.o
 .debug_line    0x000000000000285f      0x16a binaries/control.o
 .debug_line    0x00000000000029c9      0x4a8 binaries/create.o
 .debug_line    0x0000000000002e71      0x26f binaries/evec.o
 .debug_line    0x00000000000030e0      0x14d binaries/exit.o
 .debug_line    0x000000000000322d      0x181 binaries/freebuf.o
 .debug_line    0x00000000000033ae      0x1b7 binaries/freemem.o
 .debug_line    0x0000000000003565      0x182 binaries/getbuf.o
 .debug_line    0x00000000000036e7      0x167 binaries/getc.o
 .debug_line    0x000000000000384e      0x177 binaries/getdev.o
 .debug_line    0x00000000000039c5      0x196 binaries/getitem.o
 .debug_line    0x0000000000003b5b      0x1a3 binaries/getmem.o
 .debug_line    0x0000000000003cfe      0x14e binaries/getpid.o
 .debug_line    0x0000000000003e4c      0x174 binaries/getprio.o
 .debug_line    0x0000000000003fc0      0x1c0 binaries/getstk.o
 .debug_line    0x0000000000004180      0x153 binaries/getticks.o
 .debug_line    0x00000000000042d3      0x151 binaries/gettime.o
 .debug_line    0x0000000000004424      0x153 binaries/getutime.o
 .debug_line    0x0000000000004577      0x167 binaries/init.o
 .debug_line    0x00000000000046de      0x2c5 binaries/initialize.o
 .debug_line    0x00000000000049a3      0x1a1 binaries/insert.o
 .debug_line    0x0000000000004b44      0x1ba binaries/insertd.o
 .debug_line    0x0000000000004cfe      0x14d binaries/ioerr.o
 .debug_line    0x0000000000004e4b      0x14e binaries/ionull.o
 .debug_line    0x0000000000004f99      0x249 binaries/kill.o
 .debug_line    0x00000000000051e2      0x226 binaries/kprintf.o
 .debug_line    0x0000000000005408      0x182 binaries/main.o
 .debug_line    0x000000000000558a      0x1ad binaries/mark.o
 .debug_line    0x0000000000005737      0x1eb binaries/mkbufpool.o
 .debug_line    0x0000000000005922      0x182 binaries/newqueue.o
 .debug_line    0x0000000000005aa4      0x167 binaries/open.o
 .debug_line    0x0000000000005c0b      0x153 binaries/panic.o
 .debug_line    0x0000000000005d5e      0x158 binaries/platinit.o
 .debug_line    0x0000000000005eb6      0x1a5 binaries/ptclear.o
 .debug_line    0x000000000000605b      0x18c binaries/ptcount.o
 .debug_line    0x00000000000061e7      0x1b8 binaries/ptcreate.o
 .debug_line    0x000000000000639f      0x183 binaries/ptdelete.o
 .debug_line    0x0000000000006522      0x1a7 binaries/ptinit.o
 .debug_line    0x00000000000066c9      0x1c0 binaries/ptrecv.o
 .debug_line    0x0000000000006889      0x17d binaries/ptreset.o
 .debug_line    0x0000000000006a06      0x1c2 binaries/ptsend.o
 .debug_line    0x0000000000006bc8      0x167 binaries/putc.o
 .debug_line    0x0000000000006d2f      0x1b6 binaries/queue.o
 .debug_line    0x0000000000006ee5      0x167 binaries/read.o
 .debug_line    0x000000000000704c      0x171 binaries/ready.o
 .debug_line    0x00000000000071bd      0x16e binaries/receive.o
 .debug_line    0x000000000000732b      0x16b binaries/recvclr.o
 .debug_line    0x0000000000007496      0x18c binaries/recvtime.o
 .debug_line    0x0000000000007622      0x1f4 binaries/resched.o
 .debug_line    0x0000000000007816      0x180 binaries/resume.o
 .debug_line    0x0000000000007996      0x167 binaries/seek.o
 .debug_line    0x0000000000007afd      0x179 binaries/semcount.o
 .debug_line    0x0000000000007c76      0x1af binaries/semcreate.o
 .debug_line    0x0000000000007e25      0x191 binaries/semdelete.o
 .debug_line    0x0000000000007fb6      0x197 binaries/semreset.o
 .debug_line    0x000000000000814d      0x193 binaries/send.o
 .debug_line    0x00000000000082e0      0x184 binaries/signal.o
 .debug_line    0x0000000000008464      0x199 binaries/signaln.o
 .debug_line    0x00000000000085fd      0x194 binaries/sleep.o
 .debug_line    0x0000000000008791      0x1db binaries/stacktrace.o
 .debug_line    0x000000000000896c      0x1a5 binaries/suspend.o
 .debug_line    0x0000000000008b11      0x19e binaries/unsleep.o
 .debug_line    0x0000000000008caf      0x150 binaries/userret.o
 .debug_line    0x0000000000008dff      0x38e binaries/vminit.o
 .debug_line    0x000000000000918d      0x196 binaries/wait.o
 .debug_line    0x0000000000009323      0x170 binaries/wakeup.o
 .debug_line    0x0000000000009493      0x168 binaries/write.o
 .debug_line    0x00000000000095fb      0x14f binaries/xdone.o
 .debug_line    0x000000000000974a      0x154 binaries/yield.o
 .debug_line    0x000000000000989e       0x4b binaries/abs.o
 .debug_line    0x00000000000098e9       0x96 binaries/atoi.o
 .debug_line    0x000000000000997f       0x94 binaries/atol.o
 .debug_line    0x0000000000009a13       0x67 binaries/bzero.o
 .debug_line    0x0000000000009a7a       0x46 binaries/ctype_.o
 .debug_line    0x0000000000009ac0      0x5da binaries/doprnt.o
 .debug_line    0x000000000000a09a      0x3c9 binaries/doscan.o
 .debug_line    0x000000000000a463      0x4db binaries/fdoprnt.o
 .debug_line    0x000000000000a93e       0x4f binaries/fgetc.o
 .debug_line    0x000000000000a98d       0x87 binaries/fgets.o
 .debug_line    0x000000000000aa14      0x15d binaries/fprintf.o
 .debug_line    0x000000000000ab71       0x4f binaries/fputc.o
 .debug_line    0x000000000000abc0       0x5d binaries/fputs.o
 .debug_line    0x000000000000ac1d       0x82 binaries/fscanf.o
 .debug_line    0x000000000000ac9f      0x151 binaries/getchar.o
 .debug_line    0x000000000000adf0       0x4c binaries/labs.o
 .debug_line    0x000000000000ae3c        0x0 binaries/memchr.o
 .debug_line    0x000000000000ae3c       0x85 binaries/memcmp.o
 .debug_line    0x000000000000aec1       0x53 binaries/memcpy.o
 .debug_line    0x000000000000af14       0x74 binaries/memset.o
 .debug_line    0x000000000000af88      0x163 binaries/printf.o
 .debug_line    0x000000000000b0eb      0x152 binaries/putchar.o
 .debug_line    0x000000000000b23d      0x1ad binaries/qsort.o
 .debug_line    0x000000000000b3ea       0x68 binaries/rand.o
 .debug_line    0x000000000000b452       0x8a binaries/sprintf.o
 .debug_line    0x000000000000b4dc       0x94 binaries/sscanf.o
 .debug_line    0x000000000000b570       0x74 binaries/strchr.o
 .debug_line    0x000000000000b5e4       0x6d binaries/strcmp.o
 .debug_line    0x000000000000b651       0x75 binaries/strcpy.o
 .debug_line    0x000000000000b6c6       0x5a binaries/strlen.o
 .debug_line    0x000000000000b720       0x85 binaries/strncat.o
 .debug_line    0x000000000000b7a5       0x9a binaries/strncmp.o
 .debug_line    0x000000000000b83f       0x85 binaries/strncpy.o
 .debug_line    0x000000000000b8c4       0x69 binaries/strnlen.o
 .debug_line    0x000000000000b92d       0x78 binaries/strrchr.o
 .debug_line    0x000000000000b9a5       0x9f binaries/strstr.o
 .debug_line    0x000000000000ba44      0x18d binaries/ttycontrol.o
 .debug_line    0x000000000000bbd1      0x19b binaries/ttygetc.o
 .debug_line    0x000000000000bd6c      0x4a5 binaries/ttyhandle_in.o
 .debug_line    0x000000000000c211      0x22d binaries/ttyhandle_out.o
 .debug_line    0x000000000000c43e      0x1a6 binaries/ttyhandler.o
 .debug_line    0x000000000000c5e4      0x1f9 binaries/ttyinit.o
 .debug_line    0x000000000000c7dd      0x164 binaries/ttykickout.o
 .debug_line    0x000000000000c941      0x19a binaries/ttyputc.o
 .debug_line    0x000000000000cadb      0x1d5 binaries/ttyread.o
 .debug_line    0x000000000000ccb0      0x184 binaries/ttywrite.o
 .debug_line    0x000000000000ce34      0x20b binaries/mount.o
 .debug_line    0x000000000000d03f      0x1ea binaries/naminit.o
 .debug_line    0x000000000000d229      0x2af binaries/nammap.o
 .debug_line    0x000000000000d4d8      0x160 binaries/namopen.o
 .debug_line    0x000000000000d638      0x154 binaries/ramclose.o
 .debug_line    0x000000000000d78c      0x166 binaries/raminit.o
 .debug_line    0x000000000000d8f2      0x153 binaries/ramopen.o
 .debug_line    0x000000000000da45      0x16a binaries/ramread.o
 .debug_line    0x000000000000dbaf      0x16b binaries/ramwrite.o
 .debug_line    0x000000000000dd1a      0x17b binaries/lfdballoc.o
 .debug_line    0x000000000000de95      0x166 binaries/lfdbfree.o
 .debug_line    0x000000000000dffb      0x18d binaries/lfflush.o
 .debug_line    0x000000000000e188      0x1cd binaries/lfgetmode.o
 .debug_line    0x000000000000e355      0x170 binaries/lfiballoc.o
 .debug_line    0x000000000000e4c5      0x176 binaries/lfibclear.o
 .debug_line    0x000000000000e63b      0x19b binaries/lfibget.o
 .debug_line    0x000000000000e7d6      0x1ac binaries/lfibput.o
 .debug_line    0x000000000000e982      0x198 binaries/lflclose.o
 .debug_line    0x000000000000eb1a      0x188 binaries/lflcontrol.o
 .debug_line    0x000000000000eca2      0x1a0 binaries/lflgetc.o
 .debug_line    0x000000000000ee42      0x1ac binaries/lflinit.o
 .debug_line    0x000000000000efee      0x1b2 binaries/lflputc.o
 .debug_line    0x000000000000f1a0      0x1a1 binaries/lflread.o
 .debug_line    0x000000000000f341      0x188 binaries/lflseek.o
 .debug_line    0x000000000000f4c9      0x17e binaries/lflwrite.o
 .debug_line    0x000000000000f647      0x191 binaries/lfscheck.o
 .debug_line    0x000000000000f7d8      0x1c5 binaries/lfsckfmt.o
 .debug_line    0x000000000000f99d      0x228 binaries/lfscreate.o
 .debug_line    0x000000000000fbc5      0x224 binaries/lfsetup.o
 .debug_line    0x000000000000fde9      0x169 binaries/lfsinit.o
 .debug_line    0x000000000000ff52      0x334 binaries/lfsopen.o
 .debug_line    0x0000000000010286      0x1fa binaries/lftruncate.o
 .debug_line    0x0000000000010480      0x30a binaries/Lab5_vgacontrol.o
 .debug_line    0x000000000001078a      0x1a5 binaries/Lab5_vgacursor.o
 .debug_line    0x000000000001092f      0x16d binaries/Lab5_vgagetc.o
 .debug_line    0x0000000000010a9c      0x3c6 binaries/Lab5_vgahandler.o
 .debug_line    0x0000000000010e62      0x178 binaries/Lab5_vgainit.o
 .debug_line    0x0000000000010fda      0x160 binaries/Lab5_vgaputc.o
 .debug_line    0x000000000001113a      0x18f binaries/Lab5_vgaread.o
 .debug_line    0x00000000000112c9      0x189 binaries/Lab5_vgawrite.o
 .debug_line    0x0000000000011452      0x15e binaries/Lab5_multiinit.o
 .debug_line    0x00000000000115b0      0x17d binaries/Lab5_multiputc.o
 .debug_line    0x000000000001172d      0x18d binaries/Lab5_multiwrite.o
 .debug_line    0x00000000000118ba      0x175 binaries/disk.o
 .debug_line    0x0000000000011a2f      0x1c9 binaries/diskflush.o
 .debug_line    0x0000000000011bf8      0x1de binaries/diskgetc.o
 .debug_line    0x0000000000011dd6      0x1e6 binaries/diskputc.o
 .debug_line    0x0000000000011fbc      0x17e binaries/diskread.o
 .debug_line    0x000000000001213a      0x15f binaries/diskseek.o
 .debug_line    0x0000000000012299      0x183 binaries/diskwrite.o
 .debug_line    0x000000000001241c      0x296 binaries/addargs.o
 .debug_line    0x00000000000126b2      0x2c9 binaries/lexan.o
 .debug_line    0x000000000001297b      0x3ab binaries/shell.o
 .debug_line    0x0000000000012d26      0x17b binaries/xsh_argecho.o
 .debug_line    0x0000000000012ea1      0x20e binaries/xsh_cat.o
 .debug_line    0x00000000000130af      0x166 binaries/xsh_clear.o
 .debug_line    0x0000000000013215      0x1f8 binaries/xsh_date.o
 .debug_line    0x000000000001340d      0x18c binaries/xsh_devdump.o
 .debug_line    0x0000000000013599      0x180 binaries/xsh_echo.o
 .debug_line    0x0000000000013719      0x14f binaries/xsh_exit.o
 .debug_line    0x0000000000013868      0x2a0 binaries/xsh_help.o
 .debug_line    0x0000000000013b08      0x1fb binaries/xsh_kill.o
 .debug_line    0x0000000000013d03      0x2d3 binaries/xsh_lab2.o
 .debug_line    0x0000000000013fd6      0x1c9 binaries/xsh_lab3.o
 .debug_line    0x000000000001419f      0x218 binaries/xsh_lab4.o
 .debug_line    0x00000000000143b7      0x1ba binaries/xsh_lab5.o
 .debug_line    0x0000000000014571      0x365 binaries/xsh_lab6.o
 .debug_line    0x00000000000148d6      0x365 binaries/xsh_memdump.o
 .debug_line    0x0000000000014c3b      0x231 binaries/xsh_memstat.o
 .debug_line    0x0000000000014e6c      0x1cf binaries/xsh_ps.o
 .debug_line    0x000000000001503b      0x1ef binaries/xsh_sleep.o
 .debug_line    0x000000000001522a      0x1dc binaries/xsh_uptime.o
 .debug_line    0x0000000000015406       0x48 binaries/Lab3_create.o
 .debug_line    0x000000000001544e       0x51 binaries/Lab3_fprintf.o
 .debug_line    0x000000000001549f       0x45 binaries/Lab3_ltss.o
 .debug_line    0x00000000000154e4       0x4e binaries/Lab3_printf.o
 .debug_line    0x0000000000015532       0x47 binaries/Lab3_read.o
 .debug_line    0x0000000000015579       0x47 binaries/Lab3_receive.o
 .debug_line    0x00000000000155c0       0x47 binaries/Lab3_recvclr.o
 .debug_line    0x0000000000015607       0x47 binaries/Lab3_resume.o
 .debug_line    0x000000000001564e       0x47 binaries/Lab3_ret_k2u.o
 .debug_line    0x0000000000015695       0x46 binaries/Lab3_ret_u2k.o
 .debug_line    0x00000000000156db       0x46 binaries/Lab3_sleep.o
 .debug_line    0x0000000000015721       0x48 binaries/Lab3_sleepms.o
 .debug_line    0x0000000000015769       0x49 binaries/Lab4_addargs.o
 .debug_line    0x00000000000157b2       0x52 binaries/Lab4_malloc_free.o
 .debug_line    0x0000000000015804       0x4b binaries/Lab6_load_code.o
 .debug_line    0x000000000001584f       0x46 binaries/Lab6_seek.o
 .debug_line    0x0000000000015895       0x4a binaries/clkdisp.o
 .debug_line    0x00000000000158df       0x4f binaries/ctxsw.o
 .debug_line    0x000000000001592e      0x2b8 binaries/intr.o
 .debug_line    0x0000000000015be6       0x54 binaries/ttydispatch.o
 .debug_line    0x0000000000015c3a       0x59 binaries/Lab5_vgadispatch.o
 .debug_line    0x0000000000015c93       0x5e binaries/Lab5_multidispatch.o

.debug_info     0x0000000000000000    0xbe989
 .debug_info    0x0000000000000000       0x26 binaries/start.o
 .debug_info    0x0000000000000026     0x11c7 binaries/Lab4_alloc_free.o
 .debug_info    0x00000000000011ed     0x1224 binaries/Lab4_do_stk_expend.o
 .debug_info    0x0000000000002411     0x125b binaries/Lab4_fillpgentry.o
 .debug_info    0x000000000000366c     0x11bd binaries/Lab4_getheap.o
 .debug_info    0x0000000000004829     0x1153 binaries/Lab4_invlpg.o
 .debug_info    0x000000000000597c     0x11be binaries/Lab4_log2ph.o
 .debug_info    0x0000000000006b3a     0x1235 binaries/Lab4_memlib.o
 .debug_info    0x0000000000007d6f     0x1ad4 binaries/Lab4_memory_pools.o
 .debug_info    0x0000000000009843     0x12c3 binaries/ascdate.o
 .debug_info    0x000000000000ab06     0x1170 binaries/bufinit.o
 .debug_info    0x000000000000bc76     0x11aa binaries/chprio.o
 .debug_info    0x000000000000ce20     0x1144 binaries/clkhandler.o
 .debug_info    0x000000000000df64     0x118c binaries/clkinit.o
 .debug_info    0x000000000000f0f0     0x119d binaries/close.o
 .debug_info    0x000000000001028d     0x1138 binaries/conf.o
 .debug_info    0x00000000000113c5     0x11ca binaries/control.o
 .debug_info    0x000000000001258f     0x12e0 binaries/create.o
 .debug_info    0x000000000001386f     0x1318 binaries/evec.o
 .debug_info    0x0000000000014b87     0x1144 binaries/exit.o
 .debug_info    0x0000000000015ccb     0x119d binaries/freebuf.o
 .debug_info    0x0000000000016e68     0x11cd binaries/freemem.o
 .debug_info    0x0000000000018035     0x1191 binaries/getbuf.o
 .debug_info    0x00000000000191c6     0x119d binaries/getc.o
 .debug_info    0x000000000001a363     0x1181 binaries/getdev.o
 .debug_info    0x000000000001b4e4     0x11e4 binaries/getitem.o
 .debug_info    0x000000000001c6c8     0x11d0 binaries/getmem.o
 .debug_info    0x000000000001d898     0x1148 binaries/getpid.o
 .debug_info    0x000000000001e9e0     0x118e binaries/getprio.o
 .debug_info    0x000000000001fb6e     0x11fd binaries/getstk.o
 .debug_info    0x0000000000020d6b     0x1164 binaries/getticks.o
 .debug_info    0x0000000000021ecf     0x1164 binaries/gettime.o
 .debug_info    0x0000000000023033     0x1164 binaries/getutime.o
 .debug_info    0x0000000000024197     0x119d binaries/init.o
 .debug_info    0x0000000000025334     0x128b binaries/initialize.o
 .debug_info    0x00000000000265bf     0x119e binaries/insert.o
 .debug_info    0x000000000002775d     0x119e binaries/insertd.o
 .debug_info    0x00000000000288fb     0x1148 binaries/ioerr.o
 .debug_info    0x0000000000029a43     0x1148 binaries/ionull.o
 .debug_info    0x000000000002ab8b     0x11c1 binaries/kill.o
 .debug_info    0x000000000002bd4c     0x12e0 binaries/kprintf.o
 .debug_info    0x000000000002d02c     0x1178 binaries/main.o
 .debug_info    0x000000000002e1a4     0x11a1 binaries/mark.o
 .debug_info    0x000000000002f345     0x11af binaries/mkbufpool.o
 .debug_info    0x00000000000304f4     0x1168 binaries/newqueue.o
 .debug_info    0x000000000003165c     0x11bb binaries/open.o
 .debug_info    0x0000000000032817     0x1154 binaries/panic.o
 .debug_info    0x000000000003396b     0x115a binaries/platinit.o
 .debug_info    0x0000000000034ac5     0x11a0 binaries/ptclear.o
 .debug_info    0x0000000000035c65     0x11aa binaries/ptcount.o
 .debug_info    0x0000000000036e0f     0x11b4 binaries/ptcreate.o
 .debug_info    0x0000000000037fc3     0x11bc binaries/ptdelete.o
 .debug_info    0x000000000003917f     0x11b9 binaries/ptinit.o
 .debug_info    0x000000000003a338     0x11b9 binaries/ptrecv.o
 .debug_info    0x000000000003b4f1     0x11bc binaries/ptreset.o
 .debug_info    0x000000000003c6ad     0x11d4 binaries/ptsend.o
 .debug_info    0x000000000003d881     0x11ab binaries/putc.o
 .debug_info    0x000000000003ea2c     0x11c8 binaries/queue.o
 .debug_info    0x000000000003fbf4     0x11bb binaries/read.o
 .debug_info    0x0000000000040daf     0x118a binaries/ready.o
 .debug_info    0x0000000000041f39     0x118c binaries/receive.o
 .debug_info    0x00000000000430c5     0x118c binaries/recvclr.o
 .debug_info    0x0000000000044251     0x119b binaries/recvtime.o
 .debug_info    0x00000000000453ec     0x11b1 binaries/resched.o
 .debug_info    0x000000000004659d     0x119b binaries/resume.o
 .debug_info    0x0000000000047738     0x11ac binaries/seek.o
 .debug_info    0x00000000000488e4     0x118e binaries/semcount.o
 .debug_info    0x0000000000049a72     0x11cb binaries/semcreate.o
 .debug_info    0x000000000004ac3d     0x1198 binaries/semdelete.o
 .debug_info    0x000000000004bdd5     0x11c5 binaries/semreset.o
 .debug_info    0x000000000004cf9a     0x11a7 binaries/send.o
 .debug_info    0x000000000004e141     0x1198 binaries/signal.o
 .debug_info    0x000000000004f2d9     0x11a7 binaries/signaln.o
 .debug_info    0x0000000000050480     0x11a9 binaries/sleep.o
 .debug_info    0x0000000000051629     0x11a6 binaries/stacktrace.o
 .debug_info    0x00000000000527cf     0x11a7 binaries/suspend.o
 .debug_info    0x0000000000053976     0x11a7 binaries/unsleep.o
 .debug_info    0x0000000000054b1d     0x1144 binaries/userret.o
 .debug_info    0x0000000000055c61     0x1526 binaries/vminit.o
 .debug_info    0x0000000000057187     0x11ad binaries/wait.o
 .debug_info    0x0000000000058334     0x1144 binaries/wakeup.o
 .debug_info    0x0000000000059478     0x11bb binaries/write.o
 .debug_info    0x000000000005a633     0x1144 binaries/xdone.o
 .debug_info    0x000000000005b777     0x1170 binaries/yield.o
 .debug_info    0x000000000005c8e7       0x57 binaries/abs.o
 .debug_info    0x000000000005c93e       0x7c binaries/atoi.o
 .debug_info    0x000000000005c9ba       0x83 binaries/atol.o
 .debug_info    0x000000000005ca3d       0x8b binaries/bzero.o
 .debug_info    0x000000000005cac8       0x5b binaries/ctype_.o
 .debug_info    0x000000000005cb23      0x415 binaries/doprnt.o
 .debug_info    0x000000000005cf38      0x3df binaries/doscan.o
 .debug_info    0x000000000005d317      0x38e binaries/fdoprnt.o
 .debug_info    0x000000000005d6a5       0x66 binaries/fgetc.o
 .debug_info    0x000000000005d70b       0x99 binaries/fgets.o
 .debug_info    0x000000000005d7a4     0x11af binaries/fprintf.o
 .debug_info    0x000000000005e953       0x64 binaries/fputc.o
 .debug_info    0x000000000005e9b7       0x8b binaries/fputs.o
 .debug_info    0x000000000005ea42      0x127 binaries/fscanf.o
 .debug_info    0x000000000005eb69     0x1148 binaries/getchar.o
 .debug_info    0x000000000005fcb1       0x57 binaries/labs.o
 .debug_info    0x000000000005fd08       0xa6 binaries/memcmp.o
 .debug_info    0x000000000005fdae       0x79 binaries/memcpy.o
 .debug_info    0x000000000005fe27       0x98 binaries/memset.o
 .debug_info    0x000000000005febf     0x11af binaries/printf.o
 .debug_info    0x000000000006106e     0x1156 binaries/putchar.o
 .debug_info    0x00000000000621c4      0x24d binaries/qsort.o
 .debug_info    0x0000000000062411       0xb2 binaries/rand.o
 .debug_info    0x00000000000624c3       0xfb binaries/sprintf.o
 .debug_info    0x00000000000625be      0x103 binaries/sscanf.o
 .debug_info    0x00000000000626c1       0x7a binaries/strchr.o
 .debug_info    0x000000000006273b       0x73 binaries/strcmp.o
 .debug_info    0x00000000000627ae       0x73 binaries/strcpy.o
 .debug_info    0x0000000000062821       0x73 binaries/strlen.o
 .debug_info    0x0000000000062894       0x98 binaries/strncat.o
 .debug_info    0x000000000006292c       0x7e binaries/strncmp.o
 .debug_info    0x00000000000629aa       0xa3 binaries/strncpy.o
 .debug_info    0x0000000000062a4d       0x8a binaries/strnlen.o
 .debug_info    0x0000000000062ad7       0x87 binaries/strrchr.o
 .debug_info    0x0000000000062b5e       0x91 binaries/strstr.o
 .debug_info    0x0000000000062bef     0x11ac binaries/ttycontrol.o
 .debug_info    0x0000000000063d9b     0x117f binaries/ttygetc.o
 .debug_info    0x0000000000064f1a     0x12fd binaries/ttyhandle_in.o
 .debug_info    0x0000000000066217     0x1236 binaries/ttyhandle_out.o
 .debug_info    0x000000000006744d     0x1218 binaries/ttyhandler.o
 .debug_info    0x0000000000068665     0x121b binaries/ttyinit.o
 .debug_info    0x0000000000069880     0x11e5 binaries/ttykickout.o
 .debug_info    0x000000000006aa65     0x1206 binaries/ttyputc.o
 .debug_info    0x000000000006bc6b     0x11ca binaries/ttyread.o
 .debug_info    0x000000000006ce35     0x1176 binaries/ttywrite.o
 .debug_info    0x000000000006dfab     0x1227 binaries/mount.o
 .debug_info    0x000000000006f1d2     0x1217 binaries/naminit.o
 .debug_info    0x00000000000703e9     0x1308 binaries/nammap.o
 .debug_info    0x00000000000716f1     0x11a5 binaries/namopen.o
 .debug_info    0x0000000000072896     0x1158 binaries/ramclose.o
 .debug_info    0x00000000000739ee     0x11a3 binaries/raminit.o
 .debug_info    0x0000000000074b91     0x1176 binaries/ramopen.o
 .debug_info    0x0000000000075d07     0x11c2 binaries/ramread.o
 .debug_info    0x0000000000076ec9     0x11c2 binaries/ramwrite.o
 .debug_info    0x000000000007808b     0x11ba binaries/lfdballoc.o
 .debug_info    0x0000000000079245     0x11d6 binaries/lfdbfree.o
 .debug_info    0x000000000007a41b     0x116e binaries/lfflush.o
 .debug_info    0x000000000007b589     0x1175 binaries/lfgetmode.o
 .debug_info    0x000000000007c6fe     0x1168 binaries/lfiballoc.o
 .debug_info    0x000000000007d866     0x117a binaries/lfibclear.o
 .debug_info    0x000000000007e9e0     0x11b6 binaries/lfibget.o
 .debug_info    0x000000000007fb96     0x11d5 binaries/lfibput.o
 .debug_info    0x0000000000080d6b     0x1171 binaries/lflclose.o
 .debug_info    0x0000000000081edc     0x11ad binaries/lflcontrol.o
 .debug_info    0x0000000000083089     0x118f binaries/lflgetc.o
 .debug_info    0x0000000000084218     0x118c binaries/lflinit.o
 .debug_info    0x00000000000853a4     0x118e binaries/lflputc.o
 .debug_info    0x0000000000086532     0x1194 binaries/lflread.o
 .debug_info    0x00000000000876c6     0x1180 binaries/lflseek.o
 .debug_info    0x0000000000088846     0x1183 binaries/lflwrite.o
 .debug_info    0x00000000000899c9     0x11ba binaries/lfscheck.o
 .debug_info    0x000000000008ab83     0x1265 binaries/lfsckfmt.o
 .debug_info    0x000000000008bde8     0x1290 binaries/lfscreate.o
 .debug_info    0x000000000008d078     0x1208 binaries/lfsetup.o
 .debug_info    0x000000000008e280     0x1166 binaries/lfsinit.o
 .debug_info    0x000000000008f3e6     0x1237 binaries/lfsopen.o
 .debug_info    0x000000000009061d     0x11d6 binaries/lftruncate.o
 .debug_info    0x00000000000917f3     0x12e2 binaries/Lab5_vgacontrol.o
 .debug_info    0x0000000000092ad5     0x11ca binaries/Lab5_vgacursor.o
 .debug_info    0x0000000000093c9f     0x1166 binaries/Lab5_vgagetc.o
 .debug_info    0x0000000000094e05     0x1295 binaries/Lab5_vgahandler.o
 .debug_info    0x000000000009609a     0x1165 binaries/Lab5_vgainit.o
 .debug_info    0x00000000000971ff     0x1166 binaries/Lab5_vgaputc.o
 .debug_info    0x0000000000098365     0x11a2 binaries/Lab5_vgaread.o
 .debug_info    0x0000000000099507     0x1176 binaries/Lab5_vgawrite.o
 .debug_info    0x000000000009a67d     0x1158 binaries/Lab5_multiinit.o
 .debug_info    0x000000000009b7d5     0x1166 binaries/Lab5_multiputc.o
 .debug_info    0x000000000009c93b     0x1176 binaries/Lab5_multiwrite.o
 .debug_info    0x000000000009dab1     0x1160 binaries/disk.o
 .debug_info    0x000000000009ec11     0x118f binaries/diskflush.o
 .debug_info    0x000000000009fda0     0x119e binaries/diskgetc.o
 .debug_info    0x00000000000a0f3e     0x11ac binaries/diskputc.o
 .debug_info    0x00000000000a20ea     0x1183 binaries/diskread.o
 .debug_info    0x00000000000a326d     0x1180 binaries/diskseek.o
 .debug_info    0x00000000000a43ed     0x119c binaries/diskwrite.o
 .debug_info    0x00000000000a5589     0x1306 binaries/addargs.o
 .debug_info    0x00000000000a688f     0x11eb binaries/lexan.o
 .debug_info    0x00000000000a7a7a     0x1300 binaries/shell.o
 .debug_info    0x00000000000a8d7a     0x1180 binaries/xsh_argecho.o
 .debug_info    0x00000000000a9efa     0x11ad binaries/xsh_cat.o
 .debug_info    0x00000000000ab0a7     0x1173 binaries/xsh_clear.o
 .debug_info    0x00000000000ac21a     0x119b binaries/xsh_date.o
 .debug_info    0x00000000000ad3b5     0x118f binaries/xsh_devdump.o
 .debug_info    0x00000000000ae544     0x1180 binaries/xsh_echo.o
 .debug_info    0x00000000000af6c4     0x1173 binaries/xsh_exit.o
 .debug_info    0x00000000000b0837     0x1215 binaries/xsh_help.o
 .debug_info    0x00000000000b1a4c     0x11ae binaries/xsh_kill.o
 .debug_info    0x00000000000b2bfa     0x1352 binaries/xsh_lab2.o
 .debug_info    0x00000000000b3f4c     0x12e5 binaries/xsh_lab3.o
 .debug_info    0x00000000000b5231     0x1227 binaries/xsh_lab4.o
 .debug_info    0x00000000000b6458     0x11cd binaries/xsh_lab5.o
 .debug_info    0x00000000000b7625     0x1685 binaries/xsh_lab6.o
 .debug_info    0x00000000000b8caa     0x1257 binaries/xsh_memdump.o
 .debug_info    0x00000000000b9f01     0x1214 binaries/xsh_memstat.o
 .debug_info    0x00000000000bb115     0x11b5 binaries/xsh_ps.o
 .debug_info    0x00000000000bc2ca     0x119f binaries/xsh_sleep.o
 .debug_info    0x00000000000bd469     0x11dc binaries/xsh_uptime.o
 .debug_info    0x00000000000be645       0x26 binaries/Lab3_create.o
 .debug_info    0x00000000000be66b       0x26 binaries/Lab3_fprintf.o
 .debug_info    0x00000000000be691       0x26 binaries/Lab3_ltss.o
 .debug_info    0x00000000000be6b7       0x26 binaries/Lab3_printf.o
 .debug_info    0x00000000000be6dd       0x26 binaries/Lab3_read.o
 .debug_info    0x00000000000be703       0x26 binaries/Lab3_receive.o
 .debug_info    0x00000000000be729       0x26 binaries/Lab3_recvclr.o
 .debug_info    0x00000000000be74f       0x26 binaries/Lab3_resume.o
 .debug_info    0x00000000000be775       0x26 binaries/Lab3_ret_k2u.o
 .debug_info    0x00000000000be79b       0x26 binaries/Lab3_ret_u2k.o
 .debug_info    0x00000000000be7c1       0x26 binaries/Lab3_sleep.o
 .debug_info    0x00000000000be7e7       0x26 binaries/Lab3_sleepms.o
 .debug_info    0x00000000000be80d       0x26 binaries/Lab4_addargs.o
 .debug_info    0x00000000000be833       0x26 binaries/Lab4_malloc_free.o
 .debug_info    0x00000000000be859       0x26 binaries/Lab6_load_code.o
 .debug_info    0x00000000000be87f       0x26 binaries/Lab6_seek.o
 .debug_info    0x00000000000be8a5       0x26 binaries/clkdisp.o
 .debug_info    0x00000000000be8cb       0x26 binaries/ctxsw.o
 .debug_info    0x00000000000be8f1       0x26 binaries/intr.o
 .debug_info    0x00000000000be917       0x26 binaries/ttydispatch.o
 .debug_info    0x00000000000be93d       0x26 binaries/Lab5_vgadispatch.o
 .debug_info    0x00000000000be963       0x26 binaries/Lab5_multidispatch.o

.debug_abbrev   0x0000000000000000    0x113c7
 .debug_abbrev  0x0000000000000000       0x14 binaries/start.o
 .debug_abbrev  0x0000000000000014      0x19a binaries/Lab4_alloc_free.o
 .debug_abbrev  0x00000000000001ae      0x187 binaries/Lab4_do_stk_expend.o
 .debug_abbrev  0x0000000000000335      0x1a5 binaries/Lab4_fillpgentry.o
 .debug_abbrev  0x00000000000004da      0x18e binaries/Lab4_getheap.o
 .debug_abbrev  0x0000000000000668      0x16b binaries/Lab4_invlpg.o
 .debug_abbrev  0x00000000000007d3      0x17e binaries/Lab4_log2ph.o
 .debug_abbrev  0x0000000000000951      0x1d9 binaries/Lab4_memlib.o
 .debug_abbrev  0x0000000000000b2a      0x2d6 binaries/Lab4_memory_pools.o
 .debug_abbrev  0x0000000000000e00      0x196 binaries/ascdate.o
 .debug_abbrev  0x0000000000000f96      0x16b binaries/bufinit.o
 .debug_abbrev  0x0000000000001101      0x180 binaries/chprio.o
 .debug_abbrev  0x0000000000001281      0x15a binaries/clkhandler.o
 .debug_abbrev  0x00000000000013db      0x169 binaries/clkinit.o
 .debug_abbrev  0x0000000000001544      0x16d binaries/close.o
 .debug_abbrev  0x00000000000016b1      0x14b binaries/conf.o
 .debug_abbrev  0x00000000000017fc      0x16d binaries/control.o
 .debug_abbrev  0x0000000000001969      0x1aa binaries/create.o
 .debug_abbrev  0x0000000000001b13      0x22d binaries/evec.o
 .debug_abbrev  0x0000000000001d40      0x15a binaries/exit.o
 .debug_abbrev  0x0000000000001e9a      0x16d binaries/freebuf.o
 .debug_abbrev  0x0000000000002007      0x187 binaries/freemem.o
 .debug_abbrev  0x000000000000218e      0x16d binaries/getbuf.o
 .debug_abbrev  0x00000000000022fb      0x16d binaries/getc.o
 .debug_abbrev  0x0000000000002468      0x17e binaries/getdev.o
 .debug_abbrev  0x00000000000025e6      0x1a9 binaries/getitem.o
 .debug_abbrev  0x000000000000278f      0x187 binaries/getmem.o
 .debug_abbrev  0x0000000000002916      0x15c binaries/getpid.o
 .debug_abbrev  0x0000000000002a72      0x16d binaries/getprio.o
 .debug_abbrev  0x0000000000002bdf      0x187 binaries/getstk.o
 .debug_abbrev  0x0000000000002d66      0x16d binaries/getticks.o
 .debug_abbrev  0x0000000000002ed3      0x16d binaries/gettime.o
 .debug_abbrev  0x0000000000003040      0x16d binaries/getutime.o
 .debug_abbrev  0x00000000000031ad      0x16d binaries/init.o
 .debug_abbrev  0x000000000000331a      0x200 binaries/initialize.o
 .debug_abbrev  0x000000000000351a      0x16d binaries/insert.o
 .debug_abbrev  0x0000000000003687      0x16d binaries/insertd.o
 .debug_abbrev  0x00000000000037f4      0x15c binaries/ioerr.o
 .debug_abbrev  0x0000000000003950      0x15c binaries/ionull.o
 .debug_abbrev  0x0000000000003aac      0x180 binaries/kill.o
 .debug_abbrev  0x0000000000003c2c      0x1b3 binaries/kprintf.o
 .debug_abbrev  0x0000000000003ddf      0x174 binaries/main.o
 .debug_abbrev  0x0000000000003f53      0x196 binaries/mark.o
 .debug_abbrev  0x00000000000040e9      0x17e binaries/mkbufpool.o
 .debug_abbrev  0x0000000000004267      0x16d binaries/newqueue.o
 .debug_abbrev  0x00000000000043d4      0x16d binaries/open.o
 .debug_abbrev  0x0000000000004541      0x16b binaries/panic.o
 .debug_abbrev  0x00000000000046ac      0x176 binaries/platinit.o
 .debug_abbrev  0x0000000000004822      0x16d binaries/ptclear.o
 .debug_abbrev  0x000000000000498f      0x16f binaries/ptcount.o
 .debug_abbrev  0x0000000000004afe      0x180 binaries/ptcreate.o
 .debug_abbrev  0x0000000000004c7e      0x16f binaries/ptdelete.o
 .debug_abbrev  0x0000000000004ded      0x18d binaries/ptinit.o
 .debug_abbrev  0x0000000000004f7a      0x180 binaries/ptrecv.o
 .debug_abbrev  0x00000000000050fa      0x16f binaries/ptreset.o
 .debug_abbrev  0x0000000000005269      0x191 binaries/ptsend.o
 .debug_abbrev  0x00000000000053fa      0x17e binaries/putc.o
 .debug_abbrev  0x0000000000005578      0x1ab binaries/queue.o
 .debug_abbrev  0x0000000000005723      0x16d binaries/read.o
 .debug_abbrev  0x0000000000005890      0x17e binaries/ready.o
 .debug_abbrev  0x0000000000005a0e      0x16f binaries/receive.o
 .debug_abbrev  0x0000000000005b7d      0x16f binaries/recvclr.o
 .debug_abbrev  0x0000000000005cec      0x180 binaries/recvtime.o
 .debug_abbrev  0x0000000000005e6c      0x19a binaries/resched.o
 .debug_abbrev  0x0000000000006006      0x16f binaries/resume.o
 .debug_abbrev  0x0000000000006175      0x17e binaries/seek.o
 .debug_abbrev  0x00000000000062f3      0x16d binaries/semcount.o
 .debug_abbrev  0x0000000000006460      0x19a binaries/semcreate.o
 .debug_abbrev  0x00000000000065fa      0x16f binaries/semdelete.o
 .debug_abbrev  0x0000000000006769      0x191 binaries/semreset.o
 .debug_abbrev  0x00000000000068fa      0x16f binaries/send.o
 .debug_abbrev  0x0000000000006a69      0x16f binaries/signal.o
 .debug_abbrev  0x0000000000006bd8      0x180 binaries/signaln.o
 .debug_abbrev  0x0000000000006d58      0x18b binaries/sleep.o
 .debug_abbrev  0x0000000000006ee3      0x180 binaries/stacktrace.o
 .debug_abbrev  0x0000000000007063      0x16f binaries/suspend.o
 .debug_abbrev  0x00000000000071d2      0x16f binaries/unsleep.o
 .debug_abbrev  0x0000000000007341      0x15a binaries/userret.o
 .debug_abbrev  0x000000000000749b      0x1ce binaries/vminit.o
 .debug_abbrev  0x0000000000007669      0x16f binaries/wait.o
 .debug_abbrev  0x00000000000077d8      0x15a binaries/wakeup.o
 .debug_abbrev  0x0000000000007932      0x16d binaries/write.o
 .debug_abbrev  0x0000000000007a9f      0x15a binaries/xdone.o
 .debug_abbrev  0x0000000000007bf9      0x15c binaries/yield.o
 .debug_abbrev  0x0000000000007d55       0x4e binaries/abs.o
 .debug_abbrev  0x0000000000007da3       0x73 binaries/atoi.o
 .debug_abbrev  0x0000000000007e16       0x73 binaries/atol.o
 .debug_abbrev  0x0000000000007e89       0x78 binaries/bzero.o
 .debug_abbrev  0x0000000000007f01       0x52 binaries/ctype_.o
 .debug_abbrev  0x0000000000007f53      0x150 binaries/doprnt.o
 .debug_abbrev  0x00000000000080a3      0x1c5 binaries/doscan.o
 .debug_abbrev  0x0000000000008268      0x13f binaries/fdoprnt.o
 .debug_abbrev  0x00000000000083a7       0x5f binaries/fgetc.o
 .debug_abbrev  0x0000000000008406       0x73 binaries/fgets.o
 .debug_abbrev  0x0000000000008479      0x1a3 binaries/fprintf.o
 .debug_abbrev  0x000000000000861c       0x4e binaries/fputc.o
 .debug_abbrev  0x000000000000866a       0x73 binaries/fputs.o
 .debug_abbrev  0x00000000000086dd       0xbc binaries/fscanf.o
 .debug_abbrev  0x0000000000008799      0x15c binaries/getchar.o
 .debug_abbrev  0x00000000000088f5       0x4e binaries/labs.o
 .debug_abbrev  0x0000000000008943       0x7f binaries/memcmp.o
 .debug_abbrev  0x00000000000089c2       0x63 binaries/memcpy.o
 .debug_abbrev  0x0000000000008a25       0x7a binaries/memset.o
 .debug_abbrev  0x0000000000008a9f      0x1a5 binaries/printf.o
 .debug_abbrev  0x0000000000008c44      0x16d binaries/putchar.o
 .debug_abbrev  0x0000000000008db1       0xe4 binaries/qsort.o
 .debug_abbrev  0x0000000000008e95       0xab binaries/rand.o
 .debug_abbrev  0x0000000000008f40       0xbd binaries/sprintf.o
 .debug_abbrev  0x0000000000008ffd       0x9e binaries/sscanf.o
 .debug_abbrev  0x000000000000909b       0x69 binaries/strchr.o
 .debug_abbrev  0x0000000000009104       0x62 binaries/strcmp.o
 .debug_abbrev  0x0000000000009166       0x62 binaries/strcpy.o
 .debug_abbrev  0x00000000000091c8       0x73 binaries/strlen.o
 .debug_abbrev  0x000000000000923b       0x7a binaries/strncat.o
 .debug_abbrev  0x00000000000092b5       0x62 binaries/strncmp.o
 .debug_abbrev  0x0000000000009317       0x7a binaries/strncpy.o
 .debug_abbrev  0x0000000000009391       0x7a binaries/strnlen.o
 .debug_abbrev  0x000000000000940b       0x7a binaries/strrchr.o
 .debug_abbrev  0x0000000000009485       0x6f binaries/strstr.o
 .debug_abbrev  0x00000000000094f4      0x180 binaries/ttycontrol.o
 .debug_abbrev  0x0000000000009674      0x180 binaries/ttygetc.o
 .debug_abbrev  0x00000000000097f4      0x1e6 binaries/ttyhandle_in.o
 .debug_abbrev  0x00000000000099da      0x185 binaries/ttyhandle_out.o
 .debug_abbrev  0x0000000000009b5f      0x174 binaries/ttyhandler.o
 .debug_abbrev  0x0000000000009cd3      0x185 binaries/ttyinit.o
 .debug_abbrev  0x0000000000009e58      0x174 binaries/ttykickout.o
 .debug_abbrev  0x0000000000009fcc      0x187 binaries/ttyputc.o
 .debug_abbrev  0x000000000000a153      0x180 binaries/ttyread.o
 .debug_abbrev  0x000000000000a2d3      0x16d binaries/ttywrite.o
 .debug_abbrev  0x000000000000a440      0x19e binaries/mount.o
 .debug_abbrev  0x000000000000a5de      0x185 binaries/naminit.o
 .debug_abbrev  0x000000000000a763      0x1a5 binaries/nammap.o
 .debug_abbrev  0x000000000000a908      0x176 binaries/namopen.o
 .debug_abbrev  0x000000000000aa7e      0x16d binaries/ramclose.o
 .debug_abbrev  0x000000000000abeb      0x196 binaries/raminit.o
 .debug_abbrev  0x000000000000ad81      0x16d binaries/ramopen.o
 .debug_abbrev  0x000000000000aeee      0x198 binaries/ramread.o
 .debug_abbrev  0x000000000000b086      0x198 binaries/ramwrite.o
 .debug_abbrev  0x000000000000b21e      0x16f binaries/lfdballoc.o
 .debug_abbrev  0x000000000000b38d      0x180 binaries/lfdbfree.o
 .debug_abbrev  0x000000000000b50d      0x16f binaries/lfflush.o
 .debug_abbrev  0x000000000000b67c      0x17e binaries/lfgetmode.o
 .debug_abbrev  0x000000000000b7fa      0x15c binaries/lfiballoc.o
 .debug_abbrev  0x000000000000b956      0x17e binaries/lfibclear.o
 .debug_abbrev  0x000000000000bad4      0x17e binaries/lfibget.o
 .debug_abbrev  0x000000000000bc52      0x180 binaries/lfibput.o
 .debug_abbrev  0x000000000000bdd2      0x16f binaries/lflclose.o
 .debug_abbrev  0x000000000000bf41      0x16f binaries/lflcontrol.o
 .debug_abbrev  0x000000000000c0b0      0x16f binaries/lflgetc.o
 .debug_abbrev  0x000000000000c21f      0x18f binaries/lflinit.o
 .debug_abbrev  0x000000000000c3ae      0x180 binaries/lflputc.o
 .debug_abbrev  0x000000000000c52e      0x16d binaries/lflread.o
 .debug_abbrev  0x000000000000c69b      0x16f binaries/lflseek.o
 .debug_abbrev  0x000000000000c80a      0x17e binaries/lflwrite.o
 .debug_abbrev  0x000000000000c988      0x189 binaries/lfscheck.o
 .debug_abbrev  0x000000000000cb11      0x198 binaries/lfsckfmt.o
 .debug_abbrev  0x000000000000cca9      0x198 binaries/lfscreate.o
 .debug_abbrev  0x000000000000ce41      0x16f binaries/lfsetup.o
 .debug_abbrev  0x000000000000cfb0      0x17c binaries/lfsinit.o
 .debug_abbrev  0x000000000000d12c      0x180 binaries/lfsopen.o
 .debug_abbrev  0x000000000000d2ac      0x180 binaries/lftruncate.o
 .debug_abbrev  0x000000000000d42c      0x201 binaries/Lab5_vgacontrol.o
 .debug_abbrev  0x000000000000d62d      0x1b6 binaries/Lab5_vgacursor.o
 .debug_abbrev  0x000000000000d7e3      0x17e binaries/Lab5_vgagetc.o
 .debug_abbrev  0x000000000000d961      0x17d binaries/Lab5_vgahandler.o
 .debug_abbrev  0x000000000000dade      0x183 binaries/Lab5_vgainit.o
 .debug_abbrev  0x000000000000dc61      0x17e binaries/Lab5_vgaputc.o
 .debug_abbrev  0x000000000000dddf      0x17e binaries/Lab5_vgaread.o
 .debug_abbrev  0x000000000000df5d      0x16d binaries/Lab5_vgawrite.o
 .debug_abbrev  0x000000000000e0ca      0x16d binaries/Lab5_multiinit.o
 .debug_abbrev  0x000000000000e237      0x17e binaries/Lab5_multiputc.o
 .debug_abbrev  0x000000000000e3b5      0x16d binaries/Lab5_multiwrite.o
 .debug_abbrev  0x000000000000e522      0x178 binaries/disk.o
 .debug_abbrev  0x000000000000e69a      0x180 binaries/diskflush.o
 .debug_abbrev  0x000000000000e81a      0x180 binaries/diskgetc.o
 .debug_abbrev  0x000000000000e99a      0x191 binaries/diskputc.o
 .debug_abbrev  0x000000000000eb2b      0x17e binaries/diskread.o
 .debug_abbrev  0x000000000000eca9      0x16f binaries/diskseek.o
 .debug_abbrev  0x000000000000ee18      0x180 binaries/diskwrite.o
 .debug_abbrev  0x000000000000ef98      0x1ad binaries/addargs.o
 .debug_abbrev  0x000000000000f145      0x18f binaries/lexan.o
 .debug_abbrev  0x000000000000f2d4      0x196 binaries/shell.o
 .debug_abbrev  0x000000000000f46a      0x17e binaries/xsh_argecho.o
 .debug_abbrev  0x000000000000f5e8      0x17e binaries/xsh_cat.o
 .debug_abbrev  0x000000000000f766      0x16d binaries/xsh_clear.o
 .debug_abbrev  0x000000000000f8d3      0x18b binaries/xsh_date.o
 .debug_abbrev  0x000000000000fa5e      0x17e binaries/xsh_devdump.o
 .debug_abbrev  0x000000000000fbdc      0x17e binaries/xsh_echo.o
 .debug_abbrev  0x000000000000fd5a      0x16d binaries/xsh_exit.o
 .debug_abbrev  0x000000000000fec7      0x187 binaries/xsh_help.o
 .debug_abbrev  0x000000000001004e      0x17e binaries/xsh_kill.o
 .debug_abbrev  0x00000000000101cc      0x1c4 binaries/xsh_lab2.o
 .debug_abbrev  0x0000000000010390      0x1cd binaries/xsh_lab3.o
 .debug_abbrev  0x000000000001055d      0x194 binaries/xsh_lab4.o
 .debug_abbrev  0x00000000000106f1      0x192 binaries/xsh_lab5.o
 .debug_abbrev  0x0000000000010883      0x1d7 binaries/xsh_lab6.o
 .debug_abbrev  0x0000000000010a5a      0x19a binaries/xsh_memdump.o
 .debug_abbrev  0x0000000000010bf4      0x198 binaries/xsh_memstat.o
 .debug_abbrev  0x0000000000010d8c      0x187 binaries/xsh_ps.o
 .debug_abbrev  0x0000000000010f13      0x17e binaries/xsh_sleep.o
 .debug_abbrev  0x0000000000011091      0x17e binaries/xsh_uptime.o
 .debug_abbrev  0x000000000001120f       0x14 binaries/Lab3_create.o
 .debug_abbrev  0x0000000000011223       0x14 binaries/Lab3_fprintf.o
 .debug_abbrev  0x0000000000011237       0x14 binaries/Lab3_ltss.o
 .debug_abbrev  0x000000000001124b       0x14 binaries/Lab3_printf.o
 .debug_abbrev  0x000000000001125f       0x14 binaries/Lab3_read.o
 .debug_abbrev  0x0000000000011273       0x14 binaries/Lab3_receive.o
 .debug_abbrev  0x0000000000011287       0x14 binaries/Lab3_recvclr.o
 .debug_abbrev  0x000000000001129b       0x14 binaries/Lab3_resume.o
 .debug_abbrev  0x00000000000112af       0x14 binaries/Lab3_ret_k2u.o
 .debug_abbrev  0x00000000000112c3       0x14 binaries/Lab3_ret_u2k.o
 .debug_abbrev  0x00000000000112d7       0x14 binaries/Lab3_sleep.o
 .debug_abbrev  0x00000000000112eb       0x14 binaries/Lab3_sleepms.o
 .debug_abbrev  0x00000000000112ff       0x14 binaries/Lab4_addargs.o
 .debug_abbrev  0x0000000000011313       0x14 binaries/Lab4_malloc_free.o
 .debug_abbrev  0x0000000000011327       0x14 binaries/Lab6_load_code.o
 .debug_abbrev  0x000000000001133b       0x14 binaries/Lab6_seek.o
 .debug_abbrev  0x000000000001134f       0x14 binaries/clkdisp.o
 .debug_abbrev  0x0000000000011363       0x14 binaries/ctxsw.o
 .debug_abbrev  0x0000000000011377       0x14 binaries/intr.o
 .debug_abbrev  0x000000000001138b       0x14 binaries/ttydispatch.o
 .debug_abbrev  0x000000000001139f       0x14 binaries/Lab5_vgadispatch.o
 .debug_abbrev  0x00000000000113b3       0x14 binaries/Lab5_multidispatch.o

.debug_aranges  0x0000000000000000     0x1bd0
 .debug_aranges
                0x0000000000000000       0x20 binaries/start.o
 .debug_aranges
                0x0000000000000020       0x20 binaries/Lab4_alloc_free.o
 .debug_aranges
                0x0000000000000040       0x20 binaries/Lab4_do_stk_expend.o
 .debug_aranges
                0x0000000000000060       0x20 binaries/Lab4_fillpgentry.o
 .debug_aranges
                0x0000000000000080       0x20 binaries/Lab4_getheap.o
 .debug_aranges
                0x00000000000000a0       0x20 binaries/Lab4_invlpg.o
 .debug_aranges
                0x00000000000000c0       0x20 binaries/Lab4_log2ph.o
 .debug_aranges
                0x00000000000000e0       0x20 binaries/Lab4_memlib.o
 .debug_aranges
                0x0000000000000100       0x20 binaries/Lab4_memory_pools.o
 .debug_aranges
                0x0000000000000120       0x20 binaries/ascdate.o
 .debug_aranges
                0x0000000000000140       0x20 binaries/bufinit.o
 .debug_aranges
                0x0000000000000160       0x20 binaries/chprio.o
 .debug_aranges
                0x0000000000000180       0x20 binaries/clkhandler.o
 .debug_aranges
                0x00000000000001a0       0x20 binaries/clkinit.o
 .debug_aranges
                0x00000000000001c0       0x20 binaries/close.o
 .debug_aranges
                0x00000000000001e0       0x18 binaries/conf.o
 .debug_aranges
                0x00000000000001f8       0x20 binaries/control.o
 .debug_aranges
                0x0000000000000218       0x20 binaries/create.o
 .debug_aranges
                0x0000000000000238       0x20 binaries/evec.o
 .debug_aranges
                0x0000000000000258       0x20 binaries/exit.o
 .debug_aranges
                0x0000000000000278       0x20 binaries/freebuf.o
 .debug_aranges
                0x0000000000000298       0x20 binaries/freemem.o
 .debug_aranges
                0x00000000000002b8       0x20 binaries/getbuf.o
 .debug_aranges
                0x00000000000002d8       0x20 binaries/getc.o
 .debug_aranges
                0x00000000000002f8       0x20 binaries/getdev.o
 .debug_aranges
                0x0000000000000318       0x20 binaries/getitem.o
 .debug_aranges
                0x0000000000000338       0x20 binaries/getmem.o
 .debug_aranges
                0x0000000000000358       0x20 binaries/getpid.o
 .debug_aranges
                0x0000000000000378       0x20 binaries/getprio.o
 .debug_aranges
                0x0000000000000398       0x20 binaries/getstk.o
 .debug_aranges
                0x00000000000003b8       0x20 binaries/getticks.o
 .debug_aranges
                0x00000000000003d8       0x20 binaries/gettime.o
 .debug_aranges
                0x00000000000003f8       0x20 binaries/getutime.o
 .debug_aranges
                0x0000000000000418       0x20 binaries/init.o
 .debug_aranges
                0x0000000000000438       0x20 binaries/initialize.o
 .debug_aranges
                0x0000000000000458       0x20 binaries/insert.o
 .debug_aranges
                0x0000000000000478       0x20 binaries/insertd.o
 .debug_aranges
                0x0000000000000498       0x20 binaries/ioerr.o
 .debug_aranges
                0x00000000000004b8       0x20 binaries/ionull.o
 .debug_aranges
                0x00000000000004d8       0x20 binaries/kill.o
 .debug_aranges
                0x00000000000004f8       0x20 binaries/kprintf.o
 .debug_aranges
                0x0000000000000518       0x20 binaries/main.o
 .debug_aranges
                0x0000000000000538       0x20 binaries/mark.o
 .debug_aranges
                0x0000000000000558       0x20 binaries/mkbufpool.o
 .debug_aranges
                0x0000000000000578       0x20 binaries/newqueue.o
 .debug_aranges
                0x0000000000000598       0x20 binaries/open.o
 .debug_aranges
                0x00000000000005b8       0x20 binaries/panic.o
 .debug_aranges
                0x00000000000005d8       0x20 binaries/platinit.o
 .debug_aranges
                0x00000000000005f8       0x20 binaries/ptclear.o
 .debug_aranges
                0x0000000000000618       0x20 binaries/ptcount.o
 .debug_aranges
                0x0000000000000638       0x20 binaries/ptcreate.o
 .debug_aranges
                0x0000000000000658       0x20 binaries/ptdelete.o
 .debug_aranges
                0x0000000000000678       0x20 binaries/ptinit.o
 .debug_aranges
                0x0000000000000698       0x20 binaries/ptrecv.o
 .debug_aranges
                0x00000000000006b8       0x20 binaries/ptreset.o
 .debug_aranges
                0x00000000000006d8       0x20 binaries/ptsend.o
 .debug_aranges
                0x00000000000006f8       0x20 binaries/putc.o
 .debug_aranges
                0x0000000000000718       0x20 binaries/queue.o
 .debug_aranges
                0x0000000000000738       0x20 binaries/read.o
 .debug_aranges
                0x0000000000000758       0x20 binaries/ready.o
 .debug_aranges
                0x0000000000000778       0x20 binaries/receive.o
 .debug_aranges
                0x0000000000000798       0x20 binaries/recvclr.o
 .debug_aranges
                0x00000000000007b8       0x20 binaries/recvtime.o
 .debug_aranges
                0x00000000000007d8       0x20 binaries/resched.o
 .debug_aranges
                0x00000000000007f8       0x20 binaries/resume.o
 .debug_aranges
                0x0000000000000818       0x20 binaries/seek.o
 .debug_aranges
                0x0000000000000838       0x20 binaries/semcount.o
 .debug_aranges
                0x0000000000000858       0x20 binaries/semcreate.o
 .debug_aranges
                0x0000000000000878       0x20 binaries/semdelete.o
 .debug_aranges
                0x0000000000000898       0x20 binaries/semreset.o
 .debug_aranges
                0x00000000000008b8       0x20 binaries/send.o
 .debug_aranges
                0x00000000000008d8       0x20 binaries/signal.o
 .debug_aranges
                0x00000000000008f8       0x20 binaries/signaln.o
 .debug_aranges
                0x0000000000000918       0x20 binaries/sleep.o
 .debug_aranges
                0x0000000000000938       0x20 binaries/stacktrace.o
 .debug_aranges
                0x0000000000000958       0x20 binaries/suspend.o
 .debug_aranges
                0x0000000000000978       0x20 binaries/unsleep.o
 .debug_aranges
                0x0000000000000998       0x20 binaries/userret.o
 .debug_aranges
                0x00000000000009b8       0x20 binaries/vminit.o
 .debug_aranges
                0x00000000000009d8       0x20 binaries/wait.o
 .debug_aranges
                0x00000000000009f8       0x20 binaries/wakeup.o
 .debug_aranges
                0x0000000000000a18       0x20 binaries/write.o
 .debug_aranges
                0x0000000000000a38       0x20 binaries/xdone.o
 .debug_aranges
                0x0000000000000a58       0x20 binaries/yield.o
 .debug_aranges
                0x0000000000000a78       0x20 binaries/abs.o
 .debug_aranges
                0x0000000000000a98       0x20 binaries/atoi.o
 .debug_aranges
                0x0000000000000ab8       0x20 binaries/atol.o
 .debug_aranges
                0x0000000000000ad8       0x20 binaries/bzero.o
 .debug_aranges
                0x0000000000000af8       0x18 binaries/ctype_.o
 .debug_aranges
                0x0000000000000b10       0x20 binaries/doprnt.o
 .debug_aranges
                0x0000000000000b30       0x20 binaries/doscan.o
 .debug_aranges
                0x0000000000000b50       0x20 binaries/fdoprnt.o
 .debug_aranges
                0x0000000000000b70       0x20 binaries/fgetc.o
 .debug_aranges
                0x0000000000000b90       0x20 binaries/fgets.o
 .debug_aranges
                0x0000000000000bb0       0x20 binaries/fprintf.o
 .debug_aranges
                0x0000000000000bd0       0x20 binaries/fputc.o
 .debug_aranges
                0x0000000000000bf0       0x20 binaries/fputs.o
 .debug_aranges
                0x0000000000000c10       0x20 binaries/fscanf.o
 .debug_aranges
                0x0000000000000c30       0x20 binaries/getchar.o
 .debug_aranges
                0x0000000000000c50       0x20 binaries/labs.o
 .debug_aranges
                0x0000000000000c70       0x20 binaries/memcmp.o
 .debug_aranges
                0x0000000000000c90       0x20 binaries/memcpy.o
 .debug_aranges
                0x0000000000000cb0       0x20 binaries/memset.o
 .debug_aranges
                0x0000000000000cd0       0x20 binaries/printf.o
 .debug_aranges
                0x0000000000000cf0       0x20 binaries/putchar.o
 .debug_aranges
                0x0000000000000d10       0x20 binaries/qsort.o
 .debug_aranges
                0x0000000000000d30       0x20 binaries/rand.o
 .debug_aranges
                0x0000000000000d50       0x20 binaries/sprintf.o
 .debug_aranges
                0x0000000000000d70       0x20 binaries/sscanf.o
 .debug_aranges
                0x0000000000000d90       0x20 binaries/strchr.o
 .debug_aranges
                0x0000000000000db0       0x20 binaries/strcmp.o
 .debug_aranges
                0x0000000000000dd0       0x20 binaries/strcpy.o
 .debug_aranges
                0x0000000000000df0       0x20 binaries/strlen.o
 .debug_aranges
                0x0000000000000e10       0x20 binaries/strncat.o
 .debug_aranges
                0x0000000000000e30       0x20 binaries/strncmp.o
 .debug_aranges
                0x0000000000000e50       0x20 binaries/strncpy.o
 .debug_aranges
                0x0000000000000e70       0x20 binaries/strnlen.o
 .debug_aranges
                0x0000000000000e90       0x20 binaries/strrchr.o
 .debug_aranges
                0x0000000000000eb0       0x20 binaries/strstr.o
 .debug_aranges
                0x0000000000000ed0       0x20 binaries/ttycontrol.o
 .debug_aranges
                0x0000000000000ef0       0x20 binaries/ttygetc.o
 .debug_aranges
                0x0000000000000f10       0x20 binaries/ttyhandle_in.o
 .debug_aranges
                0x0000000000000f30       0x20 binaries/ttyhandle_out.o
 .debug_aranges
                0x0000000000000f50       0x20 binaries/ttyhandler.o
 .debug_aranges
                0x0000000000000f70       0x20 binaries/ttyinit.o
 .debug_aranges
                0x0000000000000f90       0x20 binaries/ttykickout.o
 .debug_aranges
                0x0000000000000fb0       0x20 binaries/ttyputc.o
 .debug_aranges
                0x0000000000000fd0       0x20 binaries/ttyread.o
 .debug_aranges
                0x0000000000000ff0       0x20 binaries/ttywrite.o
 .debug_aranges
                0x0000000000001010       0x20 binaries/mount.o
 .debug_aranges
                0x0000000000001030       0x20 binaries/naminit.o
 .debug_aranges
                0x0000000000001050       0x20 binaries/nammap.o
 .debug_aranges
                0x0000000000001070       0x20 binaries/namopen.o
 .debug_aranges
                0x0000000000001090       0x20 binaries/ramclose.o
 .debug_aranges
                0x00000000000010b0       0x20 binaries/raminit.o
 .debug_aranges
                0x00000000000010d0       0x20 binaries/ramopen.o
 .debug_aranges
                0x00000000000010f0       0x20 binaries/ramread.o
 .debug_aranges
                0x0000000000001110       0x20 binaries/ramwrite.o
 .debug_aranges
                0x0000000000001130       0x20 binaries/lfdballoc.o
 .debug_aranges
                0x0000000000001150       0x20 binaries/lfdbfree.o
 .debug_aranges
                0x0000000000001170       0x20 binaries/lfflush.o
 .debug_aranges
                0x0000000000001190       0x20 binaries/lfgetmode.o
 .debug_aranges
                0x00000000000011b0       0x20 binaries/lfiballoc.o
 .debug_aranges
                0x00000000000011d0       0x20 binaries/lfibclear.o
 .debug_aranges
                0x00000000000011f0       0x20 binaries/lfibget.o
 .debug_aranges
                0x0000000000001210       0x20 binaries/lfibput.o
 .debug_aranges
                0x0000000000001230       0x20 binaries/lflclose.o
 .debug_aranges
                0x0000000000001250       0x20 binaries/lflcontrol.o
 .debug_aranges
                0x0000000000001270       0x20 binaries/lflgetc.o
 .debug_aranges
                0x0000000000001290       0x20 binaries/lflinit.o
 .debug_aranges
                0x00000000000012b0       0x20 binaries/lflputc.o
 .debug_aranges
                0x00000000000012d0       0x20 binaries/lflread.o
 .debug_aranges
                0x00000000000012f0       0x20 binaries/lflseek.o
 .debug_aranges
                0x0000000000001310       0x20 binaries/lflwrite.o
 .debug_aranges
                0x0000000000001330       0x20 binaries/lfscheck.o
 .debug_aranges
                0x0000000000001350       0x20 binaries/lfsckfmt.o
 .debug_aranges
                0x0000000000001370       0x20 binaries/lfscreate.o
 .debug_aranges
                0x0000000000001390       0x20 binaries/lfsetup.o
 .debug_aranges
                0x00000000000013b0       0x20 binaries/lfsinit.o
 .debug_aranges
                0x00000000000013d0       0x20 binaries/lfsopen.o
 .debug_aranges
                0x00000000000013f0       0x20 binaries/lftruncate.o
 .debug_aranges
                0x0000000000001410       0x20 binaries/Lab5_vgacontrol.o
 .debug_aranges
                0x0000000000001430       0x20 binaries/Lab5_vgacursor.o
 .debug_aranges
                0x0000000000001450       0x20 binaries/Lab5_vgagetc.o
 .debug_aranges
                0x0000000000001470       0x20 binaries/Lab5_vgahandler.o
 .debug_aranges
                0x0000000000001490       0x20 binaries/Lab5_vgainit.o
 .debug_aranges
                0x00000000000014b0       0x20 binaries/Lab5_vgaputc.o
 .debug_aranges
                0x00000000000014d0       0x20 binaries/Lab5_vgaread.o
 .debug_aranges
                0x00000000000014f0       0x20 binaries/Lab5_vgawrite.o
 .debug_aranges
                0x0000000000001510       0x20 binaries/Lab5_multiinit.o
 .debug_aranges
                0x0000000000001530       0x20 binaries/Lab5_multiputc.o
 .debug_aranges
                0x0000000000001550       0x20 binaries/Lab5_multiwrite.o
 .debug_aranges
                0x0000000000001570       0x20 binaries/disk.o
 .debug_aranges
                0x0000000000001590       0x20 binaries/diskflush.o
 .debug_aranges
                0x00000000000015b0       0x20 binaries/diskgetc.o
 .debug_aranges
                0x00000000000015d0       0x20 binaries/diskputc.o
 .debug_aranges
                0x00000000000015f0       0x20 binaries/diskread.o
 .debug_aranges
                0x0000000000001610       0x20 binaries/diskseek.o
 .debug_aranges
                0x0000000000001630       0x20 binaries/diskwrite.o
 .debug_aranges
                0x0000000000001650       0x20 binaries/addargs.o
 .debug_aranges
                0x0000000000001670       0x20 binaries/lexan.o
 .debug_aranges
                0x0000000000001690       0x20 binaries/shell.o
 .debug_aranges
                0x00000000000016b0       0x20 binaries/xsh_argecho.o
 .debug_aranges
                0x00000000000016d0       0x20 binaries/xsh_cat.o
 .debug_aranges
                0x00000000000016f0       0x20 binaries/xsh_clear.o
 .debug_aranges
                0x0000000000001710       0x20 binaries/xsh_date.o
 .debug_aranges
                0x0000000000001730       0x20 binaries/xsh_devdump.o
 .debug_aranges
                0x0000000000001750       0x20 binaries/xsh_echo.o
 .debug_aranges
                0x0000000000001770       0x20 binaries/xsh_exit.o
 .debug_aranges
                0x0000000000001790       0x20 binaries/xsh_help.o
 .debug_aranges
                0x00000000000017b0       0x20 binaries/xsh_kill.o
 .debug_aranges
                0x00000000000017d0       0x20 binaries/xsh_lab2.o
 .debug_aranges
                0x00000000000017f0       0x20 binaries/xsh_lab3.o
 .debug_aranges
                0x0000000000001810       0x20 binaries/xsh_lab4.o
 .debug_aranges
                0x0000000000001830       0x20 binaries/xsh_lab5.o
 .debug_aranges
                0x0000000000001850       0x20 binaries/xsh_lab6.o
 .debug_aranges
                0x0000000000001870       0x20 binaries/xsh_memdump.o
 .debug_aranges
                0x0000000000001890       0x20 binaries/xsh_memstat.o
 .debug_aranges
                0x00000000000018b0       0x20 binaries/xsh_ps.o
 .debug_aranges
                0x00000000000018d0       0x20 binaries/xsh_sleep.o
 .debug_aranges
                0x00000000000018f0       0x20 binaries/xsh_uptime.o
 .debug_aranges
                0x0000000000001910       0x20 binaries/Lab3_create.o
 .debug_aranges
                0x0000000000001930       0x20 binaries/Lab3_fprintf.o
 .debug_aranges
                0x0000000000001950       0x20 binaries/Lab3_ltss.o
 .debug_aranges
                0x0000000000001970       0x20 binaries/Lab3_printf.o
 .debug_aranges
                0x0000000000001990       0x20 binaries/Lab3_read.o
 .debug_aranges
                0x00000000000019b0       0x20 binaries/Lab3_receive.o
 .debug_aranges
                0x00000000000019d0       0x20 binaries/Lab3_recvclr.o
 .debug_aranges
                0x00000000000019f0       0x20 binaries/Lab3_resume.o
 .debug_aranges
                0x0000000000001a10       0x20 binaries/Lab3_ret_k2u.o
 .debug_aranges
                0x0000000000001a30       0x20 binaries/Lab3_ret_u2k.o
 .debug_aranges
                0x0000000000001a50       0x20 binaries/Lab3_sleep.o
 .debug_aranges
                0x0000000000001a70       0x20 binaries/Lab3_sleepms.o
 .debug_aranges
                0x0000000000001a90       0x20 binaries/Lab4_addargs.o
 .debug_aranges
                0x0000000000001ab0       0x20 binaries/Lab4_malloc_free.o
 .debug_aranges
                0x0000000000001ad0       0x20 binaries/Lab6_load_code.o
 .debug_aranges
                0x0000000000001af0       0x20 binaries/Lab6_seek.o
 .debug_aranges
                0x0000000000001b10       0x20 binaries/clkdisp.o
 .debug_aranges
                0x0000000000001b30       0x20 binaries/ctxsw.o
 .debug_aranges
                0x0000000000001b50       0x20 binaries/intr.o
 .debug_aranges
                0x0000000000001b70       0x20 binaries/ttydispatch.o
 .debug_aranges
                0x0000000000001b90       0x20 binaries/Lab5_vgadispatch.o
 .debug_aranges
                0x0000000000001bb0       0x20 binaries/Lab5_multidispatch.o

.debug_str      0x0000000000000000     0x2f56
 .debug_str     0x0000000000000000       0x44 binaries/start.o
 .debug_str     0x0000000000000044      0x871 binaries/Lab4_alloc_free.o
                                        0x8fb (size before relaxing)
 .debug_str     0x00000000000008b5       0x69 binaries/Lab4_do_stk_expend.o
                                        0x90d (size before relaxing)
 .debug_str     0x000000000000091e       0x70 binaries/Lab4_fillpgentry.o
                                        0x91c (size before relaxing)
 .debug_str     0x000000000000098e       0x3e binaries/Lab4_getheap.o
                                        0x8e3 (size before relaxing)
 .debug_str     0x00000000000009cc       0x1f binaries/Lab4_invlpg.o
                                        0x8b0 (size before relaxing)
 .debug_str     0x00000000000009eb       0x1f binaries/Lab4_log2ph.o
                                        0x8d7 (size before relaxing)
 .debug_str     0x0000000000000a0a       0x98 binaries/Lab4_memlib.o
                                        0x936 (size before relaxing)
 .debug_str     0x0000000000000aa2      0x192 binaries/Lab4_memory_pools.o
                                        0xa4d (size before relaxing)
 .debug_str     0x0000000000000c34       0x80 binaries/ascdate.o
                                        0x917 (size before relaxing)
 .debug_str     0x0000000000000cb4       0x1c binaries/bufinit.o
                                        0x8b4 (size before relaxing)
 .debug_str     0x0000000000000cd0       0x2a binaries/chprio.o
                                        0x8ce (size before relaxing)
 .debug_str     0x0000000000000cfa       0x22 binaries/clkhandler.o
                                        0x8b3 (size before relaxing)
 .debug_str     0x0000000000000d1c       0x21 binaries/clkinit.o
                                        0x8b2 (size before relaxing)
 .debug_str     0x0000000000000d3d       0x27 binaries/close.o
                                        0x8d3 (size before relaxing)
 .debug_str     0x0000000000000d64       0x11 binaries/conf.o
                                        0x8a2 (size before relaxing)
 .debug_str     0x0000000000000d75       0x1e binaries/control.o
                                        0x8e6 (size before relaxing)
 .debug_str     0x0000000000000d93       0x77 binaries/create.o
                                        0x935 (size before relaxing)
 .debug_str     0x0000000000000e0a       0xb0 binaries/evec.o
                                        0x95b (size before relaxing)
 .debug_str     0x0000000000000eba       0x11 binaries/exit.o
                                        0x8a7 (size before relaxing)
 .debug_str     0x0000000000000ecb       0x31 binaries/freebuf.o
                                        0x8d7 (size before relaxing)
 .debug_str     0x0000000000000efc       0x25 binaries/freemem.o
                                        0x8de (size before relaxing)
 .debug_str     0x0000000000000f21       0x21 binaries/getbuf.o
                                        0x8cc (size before relaxing)
 .debug_str     0x0000000000000f42       0x11 binaries/getc.o
                                        0x8d1 (size before relaxing)
 .debug_str     0x0000000000000f53       0x22 binaries/getdev.o
                                        0x8c0 (size before relaxing)
 .debug_str     0x0000000000000f75       0x2d binaries/getitem.o
                                        0x8d2 (size before relaxing)
 .debug_str     0x0000000000000fa2       0x2d binaries/getmem.o
                                        0x8e2 (size before relaxing)
 .debug_str     0x0000000000000fcf       0x1a binaries/getpid.o
                                        0x8ab (size before relaxing)
 .debug_str     0x0000000000000fe9       0x1c binaries/getprio.o
                                        0x8c7 (size before relaxing)
 .debug_str     0x0000000000001005       0x24 binaries/getstk.o
                                        0x8f8 (size before relaxing)
 .debug_str     0x0000000000001029       0x25 binaries/getticks.o
                                        0x8b6 (size before relaxing)
 .debug_str     0x000000000000104e       0x23 binaries/gettime.o
                                        0x8bb (size before relaxing)
 .debug_str     0x0000000000001071       0x1e binaries/getutime.o
                                        0x8bd (size before relaxing)
 .debug_str     0x000000000000108f       0x11 binaries/init.o
                                        0x8d1 (size before relaxing)
 .debug_str     0x00000000000010a0       0x4f binaries/initialize.o
                                        0x8f0 (size before relaxing)
 .debug_str     0x00000000000010ef       0x18 binaries/insert.o
                                        0x8bc (size before relaxing)
 .debug_str     0x0000000000001107       0x1c binaries/insertd.o
                                        0x8be (size before relaxing)
 .debug_str     0x0000000000001123       0x18 binaries/ioerr.o
                                        0x8a9 (size before relaxing)
 .debug_str     0x000000000000113b       0x1a binaries/ionull.o
                                        0x8ab (size before relaxing)
 .debug_str     0x0000000000001155       0x1d binaries/kill.o
                                        0x8ce (size before relaxing)
 .debug_str     0x0000000000001172       0x4d binaries/kprintf.o
                                        0x915 (size before relaxing)
 .debug_str     0x00000000000011bf       0x1b binaries/main.o
                                        0x8b9 (size before relaxing)
 .debug_str     0x00000000000011da       0x1f binaries/mark.o
                                        0x8b7 (size before relaxing)
 .debug_str     0x00000000000011f9       0x2f binaries/mkbufpool.o
                                        0x8da (size before relaxing)
 .debug_str     0x0000000000001228       0x26 binaries/newqueue.o
                                        0x8b7 (size before relaxing)
 .debug_str     0x000000000000124e       0x11 binaries/open.o
                                        0x8db (size before relaxing)
 .debug_str     0x000000000000125f       0x18 binaries/panic.o
                                        0x8a9 (size before relaxing)
 .debug_str     0x0000000000001277       0x2b binaries/platinit.o
                                        0x8bc (size before relaxing)
 .debug_str     0x00000000000012a2       0x39 binaries/ptclear.o
                                        0x8ca (size before relaxing)
 .debug_str     0x00000000000012db       0x2a binaries/ptcount.o
                                        0x8d4 (size before relaxing)
 .debug_str     0x0000000000001305       0x24 binaries/ptcreate.o
                                        0x8d6 (size before relaxing)
 .debug_str     0x0000000000001329       0x1e binaries/ptdelete.o
                                        0x8d1 (size before relaxing)
 .debug_str     0x0000000000001347       0x22 binaries/ptinit.o
                                        0x8c5 (size before relaxing)
 .debug_str     0x0000000000001369       0x22 binaries/ptrecv.o
                                        0x8cd (size before relaxing)
 .debug_str     0x000000000000138b       0x1c binaries/ptreset.o
                                        0x8cf (size before relaxing)
 .debug_str     0x00000000000013a7       0x23 binaries/ptsend.o
                                        0x8de (size before relaxing)
 .debug_str     0x00000000000013ca       0x11 binaries/putc.o
                                        0x8d1 (size before relaxing)
 .debug_str     0x00000000000013db       0x22 binaries/queue.o
                                        0x8bd (size before relaxing)
 .debug_str     0x00000000000013fd       0x11 binaries/read.o
                                        0x8de (size before relaxing)
 .debug_str     0x000000000000140e       0x18 binaries/ready.o
                                        0x8b6 (size before relaxing)
 .debug_str     0x0000000000001426       0x1c binaries/receive.o
                                        0x8c0 (size before relaxing)
 .debug_str     0x0000000000001442       0x1c binaries/recvclr.o
                                        0x8c0 (size before relaxing)
 .debug_str     0x000000000000145e       0x26 binaries/recvtime.o
                                        0x8ca (size before relaxing)
 .debug_str     0x0000000000001484       0x35 binaries/resched.o
                                        0x8cd (size before relaxing)
 .debug_str     0x00000000000014b9       0x1a binaries/resume.o
                                        0x8c3 (size before relaxing)
 .debug_str     0x00000000000014d3       0x11 binaries/seek.o
                                        0x8d1 (size before relaxing)
 .debug_str     0x00000000000014e4       0x24 binaries/semcount.o
                                        0x8d0 (size before relaxing)
 .debug_str     0x0000000000001508       0x2f binaries/semcreate.o
                                        0x8d3 (size before relaxing)
 .debug_str     0x0000000000001537       0x20 binaries/semdelete.o
                                        0x8cd (size before relaxing)
 .debug_str     0x0000000000001557       0x27 binaries/semreset.o
                                        0x8da (size before relaxing)
 .debug_str     0x000000000000157e       0x11 binaries/send.o
                                        0x8c2 (size before relaxing)
 .debug_str     0x000000000000158f       0x1a binaries/signal.o
                                        0x8c7 (size before relaxing)
 .debug_str     0x00000000000015a9       0x1c binaries/signaln.o
                                        0x8cf (size before relaxing)
 .debug_str     0x00000000000015c5       0x1a binaries/sleep.o
                                        0x8cc (size before relaxing)
 .debug_str     0x00000000000015df       0x27 binaries/stacktrace.o
                                        0x8d2 (size before relaxing)
 .debug_str     0x0000000000001606       0x1c binaries/suspend.o
                                        0x8cd (size before relaxing)
 .debug_str     0x0000000000001622       0x24 binaries/unsleep.o
                                        0x8cf (size before relaxing)
 .debug_str     0x0000000000001646       0x1c binaries/userret.o
                                        0x8ad (size before relaxing)
 .debug_str     0x0000000000001662      0x1d2 binaries/vminit.o
                                        0xa9e (size before relaxing)
 .debug_str     0x0000000000001834       0x11 binaries/wait.o
                                        0x8c9 (size before relaxing)
 .debug_str     0x0000000000001845       0x1a binaries/wakeup.o
                                        0x8ab (size before relaxing)
 .debug_str     0x000000000000185f       0x12 binaries/write.o
                                        0x8e0 (size before relaxing)
 .debug_str     0x0000000000001871       0x18 binaries/xdone.o
                                        0x8a9 (size before relaxing)
 .debug_str     0x0000000000001889       0x18 binaries/yield.o
                                        0x8be (size before relaxing)
 .debug_str     0x00000000000018a1        0xd binaries/abs.o
                                         0xc4 (size before relaxing)
 .debug_str     0x00000000000018ae       0x13 binaries/atoi.o
                                         0xcf (size before relaxing)
 .debug_str     0x00000000000018c1       0x13 binaries/atol.o
                                         0xd8 (size before relaxing)
 .debug_str     0x00000000000018d4       0x15 binaries/bzero.o
                                         0xd1 (size before relaxing)
 .debug_str     0x00000000000018e9       0x18 binaries/ctype_.o
                                         0xe1 (size before relaxing)
 .debug_str     0x0000000000001901       0x94 binaries/doprnt.o
                                        0x191 (size before relaxing)
 .debug_str     0x0000000000001995       0x7e binaries/doscan.o
                                        0x186 (size before relaxing)
 .debug_str     0x0000000000001a13       0x1f binaries/fdoprnt.o
                                        0x17a (size before relaxing)
 .debug_str     0x0000000000001a32       0x1c binaries/fgetc.o
                                         0xd3 (size before relaxing)
 .debug_str     0x0000000000001a4e       0x15 binaries/fgets.o
                                         0xd1 (size before relaxing)
 .debug_str     0x0000000000001a63       0x11 binaries/fprintf.o
                                        0x8d1 (size before relaxing)
 .debug_str     0x0000000000001a74       0x15 binaries/fputc.o
                                         0xcc (size before relaxing)
 .debug_str     0x0000000000001a89       0x15 binaries/fputs.o
                                         0xd1 (size before relaxing)
 .debug_str     0x0000000000001a9e       0x1c binaries/fscanf.o
                                         0xeb (size before relaxing)
 .debug_str     0x0000000000001aba       0x19 binaries/getchar.o
                                        0x8aa (size before relaxing)
 .debug_str     0x0000000000001ad3       0x13 binaries/labs.o
                                         0xd3 (size before relaxing)
 .debug_str     0x0000000000001ae6       0x10 binaries/memchr.o
                                         0xc7 (size before relaxing)
 .debug_str     0x0000000000001af6       0x17 binaries/memcmp.o
                                         0xdc (size before relaxing)
 .debug_str     0x0000000000001b0d       0x17 binaries/memcpy.o
                                         0xce (size before relaxing)
 .debug_str     0x0000000000001b24       0x17 binaries/memset.o
                                         0xd3 (size before relaxing)
 .debug_str     0x0000000000001b3b       0x10 binaries/printf.o
                                        0x8cf (size before relaxing)
 .debug_str     0x0000000000001b4b       0x19 binaries/putchar.o
                                        0x8aa (size before relaxing)
 .debug_str     0x0000000000001b64       0x32 binaries/qsort.o
                                        0x101 (size before relaxing)
 .debug_str     0x0000000000001b96       0x2b binaries/rand.o
                                         0xf9 (size before relaxing)
 .debug_str     0x0000000000001bc1       0x25 binaries/sprintf.o
                                         0xfb (size before relaxing)
 .debug_str     0x0000000000001be6       0x2d binaries/sscanf.o
                                         0xee (size before relaxing)
 .debug_str     0x0000000000001c13       0x17 binaries/strchr.o
                                         0xd3 (size before relaxing)
 .debug_str     0x0000000000001c2a       0x21 binaries/strcmp.o
                                         0xdd (size before relaxing)
 .debug_str     0x0000000000001c4b       0x17 binaries/strcpy.o
                                         0xd3 (size before relaxing)
 .debug_str     0x0000000000001c62       0x17 binaries/strlen.o
                                         0xd3 (size before relaxing)
 .debug_str     0x0000000000001c79       0x19 binaries/strncat.o
                                         0xd5 (size before relaxing)
 .debug_str     0x0000000000001c92       0x19 binaries/strncmp.o
                                         0xd5 (size before relaxing)
 .debug_str     0x0000000000001cab       0x19 binaries/strncpy.o
                                         0xd5 (size before relaxing)
 .debug_str     0x0000000000001cc4       0x19 binaries/strnlen.o
                                         0xe2 (size before relaxing)
 .debug_str     0x0000000000001cdd       0x19 binaries/strrchr.o
                                         0xd5 (size before relaxing)
 .debug_str     0x0000000000001cf6       0x17 binaries/strstr.o
                                         0xd3 (size before relaxing)
 .debug_str     0x0000000000001d0d       0x2c binaries/ttycontrol.o
                                        0x8d3 (size before relaxing)
 .debug_str     0x0000000000001d39       0x20 binaries/ttygetc.o
                                        0x8be (size before relaxing)
 .debug_str     0x0000000000001d59       0x44 binaries/ttyhandle_in.o
                                        0x902 (size before relaxing)
 .debug_str     0x0000000000001d9d       0x3a binaries/ttyhandle_out.o
                                        0x8f6 (size before relaxing)
 .debug_str     0x0000000000001dd7       0x26 binaries/ttyhandler.o
                                        0x8e3 (size before relaxing)
 .debug_str     0x0000000000001dfd       0x25 binaries/ttyinit.o
                                        0x8db (size before relaxing)
 .debug_str     0x0000000000001e22       0x26 binaries/ttykickout.o
                                        0x8d6 (size before relaxing)
 .debug_str     0x0000000000001e48       0x20 binaries/ttyputc.o
                                        0x8d6 (size before relaxing)
 .debug_str     0x0000000000001e68       0x2e binaries/ttyread.o
                                        0x8dd (size before relaxing)
 .debug_str     0x0000000000001e96       0x22 binaries/ttywrite.o
                                        0x8c5 (size before relaxing)
 .debug_str     0x0000000000001eb8       0x3b binaries/mount.o
                                        0x8fc (size before relaxing)
 .debug_str     0x0000000000001ef3       0x36 binaries/naminit.o
                                        0x8e1 (size before relaxing)
 .debug_str     0x0000000000001f29       0x70 binaries/nammap.o
                                        0x92d (size before relaxing)
 .debug_str     0x0000000000001f99       0x20 binaries/namopen.o
                                        0x8d1 (size before relaxing)
 .debug_str     0x0000000000001fb9       0x22 binaries/ramclose.o
                                        0x8ba (size before relaxing)
 .debug_str     0x0000000000001fdb       0x28 binaries/raminit.o
                                        0x8c5 (size before relaxing)
 .debug_str     0x0000000000002003       0x20 binaries/ramopen.o
                                        0x8c2 (size before relaxing)
 .debug_str     0x0000000000002023       0x25 binaries/ramread.o
                                        0x8cf (size before relaxing)
 .debug_str     0x0000000000002048       0x22 binaries/ramwrite.o
                                        0x8d1 (size before relaxing)
 .debug_str     0x000000000000206a       0x47 binaries/lfdballoc.o
                                        0x8e4 (size before relaxing)
 .debug_str     0x00000000000020b1       0x21 binaries/lfdbfree.o
                                        0x8e2 (size before relaxing)
 .debug_str     0x00000000000020d2       0x26 binaries/lfflush.o
                                        0x8be (size before relaxing)
 .debug_str     0x00000000000020f8       0x2a binaries/lfgetmode.o
                                        0x8c0 (size before relaxing)
 .debug_str     0x0000000000002122       0x2a binaries/lfiballoc.o
                                        0x8c2 (size before relaxing)
 .debug_str     0x000000000000214c       0x2a binaries/lfibclear.o
                                        0x8c2 (size before relaxing)
 .debug_str     0x0000000000002176       0x25 binaries/lfibget.o
                                        0x8cf (size before relaxing)
 .debug_str     0x000000000000219b       0x2a binaries/lfibput.o
                                        0x8e0 (size before relaxing)
 .debug_str     0x00000000000021c5       0x22 binaries/lflclose.o
                                        0x8c0 (size before relaxing)
 .debug_str     0x00000000000021e7       0x26 binaries/lflcontrol.o
                                        0x8da (size before relaxing)
 .debug_str     0x000000000000220d       0x2e binaries/lflgetc.o
                                        0x8cc (size before relaxing)
 .debug_str     0x000000000000223b       0x20 binaries/lflinit.o
                                        0x8be (size before relaxing)
 .debug_str     0x000000000000225b       0x20 binaries/lflputc.o
                                        0x8c4 (size before relaxing)
 .debug_str     0x000000000000227b       0x30 binaries/lflread.o
                                        0x8d3 (size before relaxing)
 .debug_str     0x00000000000022ab       0x20 binaries/lflseek.o
                                        0x8c5 (size before relaxing)
 .debug_str     0x00000000000022cb       0x22 binaries/lflwrite.o
                                        0x8c5 (size before relaxing)
 .debug_str     0x00000000000022ed       0x2a binaries/lfscheck.o
                                        0x8d6 (size before relaxing)
 .debug_str     0x0000000000002317       0x41 binaries/lfsckfmt.o
                                        0x91f (size before relaxing)
 .debug_str     0x0000000000002358       0x3d binaries/lfscreate.o
                                        0x934 (size before relaxing)
 .debug_str     0x0000000000002395       0x31 binaries/lfsetup.o
                                        0x903 (size before relaxing)
 .debug_str     0x00000000000023c6       0x20 binaries/lfsinit.o
                                        0x8b8 (size before relaxing)
 .debug_str     0x00000000000023e6       0x2d binaries/lfsopen.o
                                        0x8f4 (size before relaxing)
 .debug_str     0x0000000000002413       0x2e binaries/lftruncate.o
                                        0x8ed (size before relaxing)
 .debug_str     0x0000000000002441       0x92 binaries/Lab5_vgacontrol.o
                                        0x92a (size before relaxing)
 .debug_str     0x00000000000024d3       0x40 binaries/Lab5_vgacursor.o
                                        0x8e7 (size before relaxing)
 .debug_str     0x0000000000002513       0x25 binaries/Lab5_vgagetc.o
                                        0x8bd (size before relaxing)
 .debug_str     0x0000000000002538       0x34 binaries/Lab5_vgahandler.o
                                        0x905 (size before relaxing)
 .debug_str     0x000000000000256c       0x25 binaries/Lab5_vgainit.o
                                        0x8c1 (size before relaxing)
 .debug_str     0x0000000000002591       0x25 binaries/Lab5_vgaputc.o
                                        0x8bd (size before relaxing)
 .debug_str     0x00000000000025b6       0x25 binaries/Lab5_vgaread.o
                                        0x8d6 (size before relaxing)
 .debug_str     0x00000000000025db       0x27 binaries/Lab5_vgawrite.o
                                        0x8ca (size before relaxing)
 .debug_str     0x0000000000002602       0x2b binaries/Lab5_multiinit.o
                                        0x8c3 (size before relaxing)
 .debug_str     0x000000000000262d       0x2b binaries/Lab5_multiputc.o
                                        0x8c3 (size before relaxing)
 .debug_str     0x0000000000002658       0x2d binaries/Lab5_multiwrite.o
                                        0x8d0 (size before relaxing)
 .debug_str     0x0000000000002685       0x1f binaries/disk.o
                                        0x8b0 (size before relaxing)
 .debug_str     0x00000000000026a4       0x2d binaries/diskflush.o
                                        0x8cc (size before relaxing)
 .debug_str     0x00000000000026d1       0x23 binaries/diskgetc.o
                                        0x8cf (size before relaxing)
 .debug_str     0x00000000000026f4       0x23 binaries/diskputc.o
                                        0x8cf (size before relaxing)
 .debug_str     0x0000000000002717       0x23 binaries/diskread.o
                                        0x8c6 (size before relaxing)
 .debug_str     0x000000000000273a       0x23 binaries/diskseek.o
                                        0x8ca (size before relaxing)
 .debug_str     0x000000000000275d       0x25 binaries/diskwrite.o
                                        0x8d0 (size before relaxing)
 .debug_str     0x0000000000002782       0x7c binaries/addargs.o
                                        0x935 (size before relaxing)
 .debug_str     0x00000000000027fe       0x2c binaries/lexan.o
                                        0x8d3 (size before relaxing)
 .debug_str     0x000000000000282a       0x53 binaries/shell.o
                                        0x909 (size before relaxing)
 .debug_str     0x000000000000287d       0x2c binaries/xsh_argecho.o
                                        0x8c8 (size before relaxing)
 .debug_str     0x00000000000028a9       0x2f binaries/xsh_cat.o
                                        0x8d4 (size before relaxing)
 .debug_str     0x00000000000028d8       0x1f binaries/xsh_clear.o
                                        0x8c4 (size before relaxing)
 .debug_str     0x00000000000028f7       0x25 binaries/xsh_date.o
                                        0x8d1 (size before relaxing)
 .debug_str     0x000000000000291c       0x23 binaries/xsh_devdump.o
                                        0x8cf (size before relaxing)
 .debug_str     0x000000000000293f       0x1d binaries/xsh_echo.o
                                        0x8c2 (size before relaxing)
 .debug_str     0x000000000000295c       0x1d binaries/xsh_exit.o
                                        0x8c2 (size before relaxing)
 .debug_str     0x0000000000002979       0x32 binaries/xsh_help.o
                                        0x8de (size before relaxing)
 .debug_str     0x00000000000029ab       0x23 binaries/xsh_kill.o
                                        0x8cf (size before relaxing)
 .debug_str     0x00000000000029ce       0xb2 binaries/xsh_lab2.o
                                        0x980 (size before relaxing)
 .debug_str     0x0000000000002a80       0x57 binaries/xsh_lab3.o
                                        0x926 (size before relaxing)
 .debug_str     0x0000000000002ad7       0x1d binaries/xsh_lab4.o
                                        0x8c1 (size before relaxing)
 .debug_str     0x0000000000002af4       0x1d binaries/xsh_lab5.o
                                        0x8c2 (size before relaxing)
 .debug_str     0x0000000000002b11      0x11c binaries/xsh_lab6.o
                                        0xa07 (size before relaxing)
 .debug_str     0x0000000000002c2d       0x32 binaries/xsh_memdump.o
                                        0x907 (size before relaxing)
 .debug_str     0x0000000000002c5f       0x4f binaries/xsh_memstat.o
                                        0x904 (size before relaxing)
 .debug_str     0x0000000000002cae       0x20 binaries/xsh_ps.o
                                        0x8cb (size before relaxing)
 .debug_str     0x0000000000002cce       0x1f binaries/xsh_sleep.o
                                        0x8d0 (size before relaxing)
 .debug_str     0x0000000000002ced       0x48 binaries/xsh_uptime.o
                                        0x8f2 (size before relaxing)
 .debug_str     0x0000000000002d35       0x18 binaries/Lab3_create.o
                                         0x4a (size before relaxing)
 .debug_str     0x0000000000002d4d       0x19 binaries/Lab3_fprintf.o
                                         0x4b (size before relaxing)
 .debug_str     0x0000000000002d66       0x16 binaries/Lab3_ltss.o
                                         0x48 (size before relaxing)
 .debug_str     0x0000000000002d7c       0x18 binaries/Lab3_printf.o
                                         0x4a (size before relaxing)
 .debug_str     0x0000000000002d94       0x16 binaries/Lab3_read.o
                                         0x48 (size before relaxing)
 .debug_str     0x0000000000002daa       0x19 binaries/Lab3_receive.o
                                         0x4b (size before relaxing)
 .debug_str     0x0000000000002dc3       0x19 binaries/Lab3_recvclr.o
                                         0x4b (size before relaxing)
 .debug_str     0x0000000000002ddc       0x18 binaries/Lab3_resume.o
                                         0x4a (size before relaxing)
 .debug_str     0x0000000000002df4       0x19 binaries/Lab3_ret_k2u.o
                                         0x4b (size before relaxing)
 .debug_str     0x0000000000002e0d       0x19 binaries/Lab3_ret_u2k.o
                                         0x4b (size before relaxing)
 .debug_str     0x0000000000002e26       0x17 binaries/Lab3_sleep.o
                                         0x49 (size before relaxing)
 .debug_str     0x0000000000002e3d       0x19 binaries/Lab3_sleepms.o
                                         0x4b (size before relaxing)
 .debug_str     0x0000000000002e56       0x19 binaries/Lab4_addargs.o
                                         0x4b (size before relaxing)
 .debug_str     0x0000000000002e6f       0x1d binaries/Lab4_malloc_free.o
                                         0x4f (size before relaxing)
 .debug_str     0x0000000000002e8c       0x1b binaries/Lab6_load_code.o
                                         0x4d (size before relaxing)
 .debug_str     0x0000000000002ea7       0x16 binaries/Lab6_seek.o
                                         0x48 (size before relaxing)
 .debug_str     0x0000000000002ebd       0x14 binaries/clkdisp.o
                                         0x46 (size before relaxing)
 .debug_str     0x0000000000002ed1       0x12 binaries/ctxsw.o
                                         0x44 (size before relaxing)
 .debug_str     0x0000000000002ee3       0x11 binaries/intr.o
                                         0x43 (size before relaxing)
 .debug_str     0x0000000000002ef4       0x1c binaries/ttydispatch.o
                                         0x4e (size before relaxing)
 .debug_str     0x0000000000002f10       0x21 binaries/Lab5_vgadispatch.o
                                         0x53 (size before relaxing)
 .debug_str     0x0000000000002f31       0x25 binaries/Lab5_multidispatch.o
                                         0x57 (size before relaxing)

.comment        0x0000000000000000       0x2b
 .comment       0x0000000000000000       0x2b binaries/Lab4_alloc_free.o
                                         0x2c (size before relaxing)
 .comment       0x000000000000002b       0x2c binaries/Lab4_do_stk_expend.o
 .comment       0x000000000000002b       0x2c binaries/Lab4_fillpgentry.o
 .comment       0x000000000000002b       0x2c binaries/Lab4_getheap.o
 .comment       0x000000000000002b       0x2c binaries/Lab4_invlpg.o
 .comment       0x000000000000002b       0x2c binaries/Lab4_log2ph.o
 .comment       0x000000000000002b       0x2c binaries/Lab4_memlib.o
 .comment       0x000000000000002b       0x2c binaries/Lab4_memory_pools.o
 .comment       0x000000000000002b       0x2c binaries/ascdate.o
 .comment       0x000000000000002b       0x2c binaries/bufinit.o
 .comment       0x000000000000002b       0x2c binaries/chprio.o
 .comment       0x000000000000002b       0x2c binaries/clkhandler.o
 .comment       0x000000000000002b       0x2c binaries/clkinit.o
 .comment       0x000000000000002b       0x2c binaries/close.o
 .comment       0x000000000000002b       0x2c binaries/conf.o
 .comment       0x000000000000002b       0x2c binaries/control.o
 .comment       0x000000000000002b       0x2c binaries/create.o
 .comment       0x000000000000002b       0x2c binaries/evec.o
 .comment       0x000000000000002b       0x2c binaries/exit.o
 .comment       0x000000000000002b       0x2c binaries/freebuf.o
 .comment       0x000000000000002b       0x2c binaries/freemem.o
 .comment       0x000000000000002b       0x2c binaries/getbuf.o
 .comment       0x000000000000002b       0x2c binaries/getc.o
 .comment       0x000000000000002b       0x2c binaries/getdev.o
 .comment       0x000000000000002b       0x2c binaries/getitem.o
 .comment       0x000000000000002b       0x2c binaries/getmem.o
 .comment       0x000000000000002b       0x2c binaries/getpid.o
 .comment       0x000000000000002b       0x2c binaries/getprio.o
 .comment       0x000000000000002b       0x2c binaries/getstk.o
 .comment       0x000000000000002b       0x2c binaries/getticks.o
 .comment       0x000000000000002b       0x2c binaries/gettime.o
 .comment       0x000000000000002b       0x2c binaries/getutime.o
 .comment       0x000000000000002b       0x2c binaries/init.o
 .comment       0x000000000000002b       0x2c binaries/initialize.o
 .comment       0x000000000000002b       0x2c binaries/insert.o
 .comment       0x000000000000002b       0x2c binaries/insertd.o
 .comment       0x000000000000002b       0x2c binaries/ioerr.o
 .comment       0x000000000000002b       0x2c binaries/ionull.o
 .comment       0x000000000000002b       0x2c binaries/kill.o
 .comment       0x000000000000002b       0x2c binaries/kprintf.o
 .comment       0x000000000000002b       0x2c binaries/main.o
 .comment       0x000000000000002b       0x2c binaries/mark.o
 .comment       0x000000000000002b       0x2c binaries/mkbufpool.o
 .comment       0x000000000000002b       0x2c binaries/newqueue.o
 .comment       0x000000000000002b       0x2c binaries/open.o
 .comment       0x000000000000002b       0x2c binaries/panic.o
 .comment       0x000000000000002b       0x2c binaries/platinit.o
 .comment       0x000000000000002b       0x2c binaries/ptclear.o
 .comment       0x000000000000002b       0x2c binaries/ptcount.o
 .comment       0x000000000000002b       0x2c binaries/ptcreate.o
 .comment       0x000000000000002b       0x2c binaries/ptdelete.o
 .comment       0x000000000000002b       0x2c binaries/ptinit.o
 .comment       0x000000000000002b       0x2c binaries/ptrecv.o
 .comment       0x000000000000002b       0x2c binaries/ptreset.o
 .comment       0x000000000000002b       0x2c binaries/ptsend.o
 .comment       0x000000000000002b       0x2c binaries/putc.o
 .comment       0x000000000000002b       0x2c binaries/queue.o
 .comment       0x000000000000002b       0x2c binaries/read.o
 .comment       0x000000000000002b       0x2c binaries/ready.o
 .comment       0x000000000000002b       0x2c binaries/receive.o
 .comment       0x000000000000002b       0x2c binaries/recvclr.o
 .comment       0x000000000000002b       0x2c binaries/recvtime.o
 .comment       0x000000000000002b       0x2c binaries/resched.o
 .comment       0x000000000000002b       0x2c binaries/resume.o
 .comment       0x000000000000002b       0x2c binaries/seek.o
 .comment       0x000000000000002b       0x2c binaries/semcount.o
 .comment       0x000000000000002b       0x2c binaries/semcreate.o
 .comment       0x000000000000002b       0x2c binaries/semdelete.o
 .comment       0x000000000000002b       0x2c binaries/semreset.o
 .comment       0x000000000000002b       0x2c binaries/send.o
 .comment       0x000000000000002b       0x2c binaries/signal.o
 .comment       0x000000000000002b       0x2c binaries/signaln.o
 .comment       0x000000000000002b       0x2c binaries/sleep.o
 .comment       0x000000000000002b       0x2c binaries/stacktrace.o
 .comment       0x000000000000002b       0x2c binaries/suspend.o
 .comment       0x000000000000002b       0x2c binaries/unsleep.o
 .comment       0x000000000000002b       0x2c binaries/userret.o
 .comment       0x000000000000002b       0x2c binaries/vminit.o
 .comment       0x000000000000002b       0x2c binaries/wait.o
 .comment       0x000000000000002b       0x2c binaries/wakeup.o
 .comment       0x000000000000002b       0x2c binaries/write.o
 .comment       0x000000000000002b       0x2c binaries/xdone.o
 .comment       0x000000000000002b       0x2c binaries/yield.o
 .comment       0x000000000000002b       0x2c binaries/abs.o
 .comment       0x000000000000002b       0x2c binaries/atoi.o
 .comment       0x000000000000002b       0x2c binaries/atol.o
 .comment       0x000000000000002b       0x2c binaries/bzero.o
 .comment       0x000000000000002b       0x2c binaries/ctype_.o
 .comment       0x000000000000002b       0x2c binaries/doprnt.o
 .comment       0x000000000000002b       0x2c binaries/doscan.o
 .comment       0x000000000000002b       0x2c binaries/fdoprnt.o
 .comment       0x000000000000002b       0x2c binaries/fgetc.o
 .comment       0x000000000000002b       0x2c binaries/fgets.o
 .comment       0x000000000000002b       0x2c binaries/fprintf.o
 .comment       0x000000000000002b       0x2c binaries/fputc.o
 .comment       0x000000000000002b       0x2c binaries/fputs.o
 .comment       0x000000000000002b       0x2c binaries/fscanf.o
 .comment       0x000000000000002b       0x2c binaries/getchar.o
 .comment       0x000000000000002b       0x2c binaries/labs.o
 .comment       0x000000000000002b       0x2c binaries/memchr.o
 .comment       0x000000000000002b       0x2c binaries/memcmp.o
 .comment       0x000000000000002b       0x2c binaries/memcpy.o
 .comment       0x000000000000002b       0x2c binaries/memset.o
 .comment       0x000000000000002b       0x2c binaries/printf.o
 .comment       0x000000000000002b       0x2c binaries/putchar.o
 .comment       0x000000000000002b       0x2c binaries/qsort.o
 .comment       0x000000000000002b       0x2c binaries/rand.o
 .comment       0x000000000000002b       0x2c binaries/sprintf.o
 .comment       0x000000000000002b       0x2c binaries/sscanf.o
 .comment       0x000000000000002b       0x2c binaries/strchr.o
 .comment       0x000000000000002b       0x2c binaries/strcmp.o
 .comment       0x000000000000002b       0x2c binaries/strcpy.o
 .comment       0x000000000000002b       0x2c binaries/strlen.o
 .comment       0x000000000000002b       0x2c binaries/strncat.o
 .comment       0x000000000000002b       0x2c binaries/strncmp.o
 .comment       0x000000000000002b       0x2c binaries/strncpy.o
 .comment       0x000000000000002b       0x2c binaries/strnlen.o
 .comment       0x000000000000002b       0x2c binaries/strrchr.o
 .comment       0x000000000000002b       0x2c binaries/strstr.o
 .comment       0x000000000000002b       0x2c binaries/ttycontrol.o
 .comment       0x000000000000002b       0x2c binaries/ttygetc.o
 .comment       0x000000000000002b       0x2c binaries/ttyhandle_in.o
 .comment       0x000000000000002b       0x2c binaries/ttyhandle_out.o
 .comment       0x000000000000002b       0x2c binaries/ttyhandler.o
 .comment       0x000000000000002b       0x2c binaries/ttyinit.o
 .comment       0x000000000000002b       0x2c binaries/ttykickout.o
 .comment       0x000000000000002b       0x2c binaries/ttyputc.o
 .comment       0x000000000000002b       0x2c binaries/ttyread.o
 .comment       0x000000000000002b       0x2c binaries/ttywrite.o
 .comment       0x000000000000002b       0x2c binaries/mount.o
 .comment       0x000000000000002b       0x2c binaries/naminit.o
 .comment       0x000000000000002b       0x2c binaries/nammap.o
 .comment       0x000000000000002b       0x2c binaries/namopen.o
 .comment       0x000000000000002b       0x2c binaries/ramclose.o
 .comment       0x000000000000002b       0x2c binaries/raminit.o
 .comment       0x000000000000002b       0x2c binaries/ramopen.o
 .comment       0x000000000000002b       0x2c binaries/ramread.o
 .comment       0x000000000000002b       0x2c binaries/ramwrite.o
 .comment       0x000000000000002b       0x2c binaries/lfdballoc.o
 .comment       0x000000000000002b       0x2c binaries/lfdbfree.o
 .comment       0x000000000000002b       0x2c binaries/lfflush.o
 .comment       0x000000000000002b       0x2c binaries/lfgetmode.o
 .comment       0x000000000000002b       0x2c binaries/lfiballoc.o
 .comment       0x000000000000002b       0x2c binaries/lfibclear.o
 .comment       0x000000000000002b       0x2c binaries/lfibget.o
 .comment       0x000000000000002b       0x2c binaries/lfibput.o
 .comment       0x000000000000002b       0x2c binaries/lflclose.o
 .comment       0x000000000000002b       0x2c binaries/lflcontrol.o
 .comment       0x000000000000002b       0x2c binaries/lflgetc.o
 .comment       0x000000000000002b       0x2c binaries/lflinit.o
 .comment       0x000000000000002b       0x2c binaries/lflputc.o
 .comment       0x000000000000002b       0x2c binaries/lflread.o
 .comment       0x000000000000002b       0x2c binaries/lflseek.o
 .comment       0x000000000000002b       0x2c binaries/lflwrite.o
 .comment       0x000000000000002b       0x2c binaries/lfscheck.o
 .comment       0x000000000000002b       0x2c binaries/lfsckfmt.o
 .comment       0x000000000000002b       0x2c binaries/lfscreate.o
 .comment       0x000000000000002b       0x2c binaries/lfsetup.o
 .comment       0x000000000000002b       0x2c binaries/lfsinit.o
 .comment       0x000000000000002b       0x2c binaries/lfsopen.o
 .comment       0x000000000000002b       0x2c binaries/lftruncate.o
 .comment       0x000000000000002b       0x2c binaries/Lab5_vgacontrol.o
 .comment       0x000000000000002b       0x2c binaries/Lab5_vgacursor.o
 .comment       0x000000000000002b       0x2c binaries/Lab5_vgagetc.o
 .comment       0x000000000000002b       0x2c binaries/Lab5_vgahandler.o
 .comment       0x000000000000002b       0x2c binaries/Lab5_vgainit.o
 .comment       0x000000000000002b       0x2c binaries/Lab5_vgaputc.o
 .comment       0x000000000000002b       0x2c binaries/Lab5_vgaread.o
 .comment       0x000000000000002b       0x2c binaries/Lab5_vgawrite.o
 .comment       0x000000000000002b       0x2c binaries/Lab5_multiinit.o
 .comment       0x000000000000002b       0x2c binaries/Lab5_multiputc.o
 .comment       0x000000000000002b       0x2c binaries/Lab5_multiwrite.o
 .comment       0x000000000000002b       0x2c binaries/disk.o
 .comment       0x000000000000002b       0x2c binaries/diskflush.o
 .comment       0x000000000000002b       0x2c binaries/diskgetc.o
 .comment       0x000000000000002b       0x2c binaries/diskputc.o
 .comment       0x000000000000002b       0x2c binaries/diskread.o
 .comment       0x000000000000002b       0x2c binaries/diskseek.o
 .comment       0x000000000000002b       0x2c binaries/diskwrite.o
 .comment       0x000000000000002b       0x2c binaries/addargs.o
 .comment       0x000000000000002b       0x2c binaries/lexan.o
 .comment       0x000000000000002b       0x2c binaries/shell.o
 .comment       0x000000000000002b       0x2c binaries/xsh_argecho.o
 .comment       0x000000000000002b       0x2c binaries/xsh_cat.o
 .comment       0x000000000000002b       0x2c binaries/xsh_clear.o
 .comment       0x000000000000002b       0x2c binaries/xsh_date.o
 .comment       0x000000000000002b       0x2c binaries/xsh_devdump.o
 .comment       0x000000000000002b       0x2c binaries/xsh_echo.o
 .comment       0x000000000000002b       0x2c binaries/xsh_exit.o
 .comment       0x000000000000002b       0x2c binaries/xsh_help.o
 .comment       0x000000000000002b       0x2c binaries/xsh_kill.o
 .comment       0x000000000000002b       0x2c binaries/xsh_lab2.o
 .comment       0x000000000000002b       0x2c binaries/xsh_lab3.o
 .comment       0x000000000000002b       0x2c binaries/xsh_lab4.o
 .comment       0x000000000000002b       0x2c binaries/xsh_lab5.o
 .comment       0x000000000000002b       0x2c binaries/xsh_lab6.o
 .comment       0x000000000000002b       0x2c binaries/xsh_memdump.o
 .comment       0x000000000000002b       0x2c binaries/xsh_memstat.o
 .comment       0x000000000000002b       0x2c binaries/xsh_ps.o
 .comment       0x000000000000002b       0x2c binaries/xsh_sleep.o
 .comment       0x000000000000002b       0x2c binaries/xsh_uptime.o

.note.GNU-stack
                0x0000000000000000        0x0
 .note.GNU-stack
                0x0000000000000000        0x0 binaries/Lab4_alloc_free.o
 .note.GNU-stack
                0x0000000000000000        0x0 binaries/Lab4_do_stk_expend.o
 .note.GNU-stack
                0x0000000000000000        0x0 binaries/Lab4_fillpgentry.o
 .note.GNU-stack
                0x0000000000000000        0x0 binaries/Lab4_getheap.o
 .note.GNU-stack
                0x0000000000000000        0x0 binaries/Lab4_invlpg.o
 .note.GNU-stack
                0x0000000000000000        0x0 binaries/Lab4_log2ph.o
 .note.GNU-stack
                0x0000000000000000        0x0 binaries/Lab4_memlib.o
 .note.GNU-stack
                0x0000000000000000        0x0 binaries/Lab4_memory_pools.o
 .note.GNU-stack
                0x0000000000000000        0x0 binaries/ascdate.o
 .note.GNU-stack
                0x0000000000000000        0x0 binaries/bufinit.o
 .note.GNU-stack
                0x0000000000000000        0x0 binaries/chprio.o
 .note.GNU-stack
                0x0000000000000000        0x0 binaries/clkhandler.o
 .note.GNU-stack
                0x0000000000000000        0x0 binaries/clkinit.o
 .note.GNU-stack
                0x0000000000000000        0x0 binaries/close.o
 .note.GNU-stack
                0x0000000000000000        0x0 binaries/conf.o
 .note.GNU-stack
                0x0000000000000000        0x0 binaries/control.o
 .note.GNU-stack
                0x0000000000000000        0x0 binaries/create.o
 .note.GNU-stack
                0x0000000000000000        0x0 binaries/evec.o
 .note.GNU-stack
                0x0000000000000000        0x0 binaries/exit.o
 .note.GNU-stack
                0x0000000000000000        0x0 binaries/freebuf.o
 .note.GNU-stack
                0x0000000000000000        0x0 binaries/freemem.o
 .note.GNU-stack
                0x0000000000000000        0x0 binaries/getbuf.o
 .note.GNU-stack
                0x0000000000000000        0x0 binaries/getc.o
 .note.GNU-stack
                0x0000000000000000        0x0 binaries/getdev.o
 .note.GNU-stack
                0x0000000000000000        0x0 binaries/getitem.o
 .note.GNU-stack
                0x0000000000000000        0x0 binaries/getmem.o
 .note.GNU-stack
                0x0000000000000000        0x0 binaries/getpid.o
 .note.GNU-stack
                0x0000000000000000        0x0 binaries/getprio.o
 .note.GNU-stack
                0x0000000000000000        0x0 binaries/getstk.o
 .note.GNU-stack
                0x0000000000000000        0x0 binaries/getticks.o
 .note.GNU-stack
                0x0000000000000000        0x0 binaries/gettime.o
 .note.GNU-stack
                0x0000000000000000        0x0 binaries/getutime.o
 .note.GNU-stack
                0x0000000000000000        0x0 binaries/init.o
 .note.GNU-stack
                0x0000000000000000        0x0 binaries/initialize.o
 .note.GNU-stack
                0x0000000000000000        0x0 binaries/insert.o
 .note.GNU-stack
                0x0000000000000000        0x0 binaries/insertd.o
 .note.GNU-stack
                0x0000000000000000        0x0 binaries/ioerr.o
 .note.GNU-stack
                0x0000000000000000        0x0 binaries/ionull.o
 .note.GNU-stack
                0x0000000000000000        0x0 binaries/kill.o
 .note.GNU-stack
                0x0000000000000000        0x0 binaries/kprintf.o
 .note.GNU-stack
                0x0000000000000000        0x0 binaries/main.o
 .note.GNU-stack
                0x0000000000000000        0x0 binaries/mark.o
 .note.GNU-stack
                0x0000000000000000        0x0 binaries/mkbufpool.o
 .note.GNU-stack
                0x0000000000000000        0x0 binaries/newqueue.o
 .note.GNU-stack
                0x0000000000000000        0x0 binaries/open.o
 .note.GNU-stack
                0x0000000000000000        0x0 binaries/panic.o
 .note.GNU-stack
                0x0000000000000000        0x0 binaries/platinit.o
 .note.GNU-stack
                0x0000000000000000        0x0 binaries/ptclear.o
 .note.GNU-stack
                0x0000000000000000        0x0 binaries/ptcount.o
 .note.GNU-stack
                0x0000000000000000        0x0 binaries/ptcreate.o
 .note.GNU-stack
                0x0000000000000000        0x0 binaries/ptdelete.o
 .note.GNU-stack
                0x0000000000000000        0x0 binaries/ptinit.o
 .note.GNU-stack
                0x0000000000000000        0x0 binaries/ptrecv.o
 .note.GNU-stack
                0x0000000000000000        0x0 binaries/ptreset.o
 .note.GNU-stack
                0x0000000000000000        0x0 binaries/ptsend.o
 .note.GNU-stack
                0x0000000000000000        0x0 binaries/putc.o
 .note.GNU-stack
                0x0000000000000000        0x0 binaries/queue.o
 .note.GNU-stack
                0x0000000000000000        0x0 binaries/read.o
 .note.GNU-stack
                0x0000000000000000        0x0 binaries/ready.o
 .note.GNU-stack
                0x0000000000000000        0x0 binaries/receive.o
 .note.GNU-stack
                0x0000000000000000        0x0 binaries/recvclr.o
 .note.GNU-stack
                0x0000000000000000        0x0 binaries/recvtime.o
 .note.GNU-stack
                0x0000000000000000        0x0 binaries/resched.o
 .note.GNU-stack
                0x0000000000000000        0x0 binaries/resume.o
 .note.GNU-stack
                0x0000000000000000        0x0 binaries/seek.o
 .note.GNU-stack
                0x0000000000000000        0x0 binaries/semcount.o
 .note.GNU-stack
                0x0000000000000000        0x0 binaries/semcreate.o
 .note.GNU-stack
                0x0000000000000000        0x0 binaries/semdelete.o
 .note.GNU-stack
                0x0000000000000000        0x0 binaries/semreset.o
 .note.GNU-stack
                0x0000000000000000        0x0 binaries/send.o
 .note.GNU-stack
                0x0000000000000000        0x0 binaries/signal.o
 .note.GNU-stack
                0x0000000000000000        0x0 binaries/signaln.o
 .note.GNU-stack
                0x0000000000000000        0x0 binaries/sleep.o
 .note.GNU-stack
                0x0000000000000000        0x0 binaries/stacktrace.o
 .note.GNU-stack
                0x0000000000000000        0x0 binaries/suspend.o
 .note.GNU-stack
                0x0000000000000000        0x0 binaries/unsleep.o
 .note.GNU-stack
                0x0000000000000000        0x0 binaries/userret.o
 .note.GNU-stack
                0x0000000000000000        0x0 binaries/vminit.o
 .note.GNU-stack
                0x0000000000000000        0x0 binaries/wait.o
 .note.GNU-stack
                0x0000000000000000        0x0 binaries/wakeup.o
 .note.GNU-stack
                0x0000000000000000        0x0 binaries/write.o
 .note.GNU-stack
                0x0000000000000000        0x0 binaries/xdone.o
 .note.GNU-stack
                0x0000000000000000        0x0 binaries/yield.o
 .note.GNU-stack
                0x0000000000000000        0x0 binaries/abs.o
 .note.GNU-stack
                0x0000000000000000        0x0 binaries/atoi.o
 .note.GNU-stack
                0x0000000000000000        0x0 binaries/atol.o
 .note.GNU-stack
                0x0000000000000000        0x0 binaries/bzero.o
 .note.GNU-stack
                0x0000000000000000        0x0 binaries/ctype_.o
 .note.GNU-stack
                0x0000000000000000        0x0 binaries/doprnt.o
 .note.GNU-stack
                0x0000000000000000        0x0 binaries/doscan.o
 .note.GNU-stack
                0x0000000000000000        0x0 binaries/fdoprnt.o
 .note.GNU-stack
                0x0000000000000000        0x0 binaries/fgetc.o
 .note.GNU-stack
                0x0000000000000000        0x0 binaries/fgets.o
 .note.GNU-stack
                0x0000000000000000        0x0 binaries/fprintf.o
 .note.GNU-stack
                0x0000000000000000        0x0 binaries/fputc.o
 .note.GNU-stack
                0x0000000000000000        0x0 binaries/fputs.o
 .note.GNU-stack
                0x0000000000000000        0x0 binaries/fscanf.o
 .note.GNU-stack
                0x0000000000000000        0x0 binaries/getchar.o
 .note.GNU-stack
                0x0000000000000000        0x0 binaries/labs.o
 .note.GNU-stack
                0x0000000000000000        0x0 binaries/memchr.o
 .note.GNU-stack
                0x0000000000000000        0x0 binaries/memcmp.o
 .note.GNU-stack
                0x0000000000000000        0x0 binaries/memcpy.o
 .note.GNU-stack
                0x0000000000000000        0x0 binaries/memset.o
 .note.GNU-stack
                0x0000000000000000        0x0 binaries/printf.o
 .note.GNU-stack
                0x0000000000000000        0x0 binaries/putchar.o
 .note.GNU-stack
                0x0000000000000000        0x0 binaries/qsort.o
 .note.GNU-stack
                0x0000000000000000        0x0 binaries/rand.o
 .note.GNU-stack
                0x0000000000000000        0x0 binaries/sprintf.o
 .note.GNU-stack
                0x0000000000000000        0x0 binaries/sscanf.o
 .note.GNU-stack
                0x0000000000000000        0x0 binaries/strchr.o
 .note.GNU-stack
                0x0000000000000000        0x0 binaries/strcmp.o
 .note.GNU-stack
                0x0000000000000000        0x0 binaries/strcpy.o
 .note.GNU-stack
                0x0000000000000000        0x0 binaries/strlen.o
 .note.GNU-stack
                0x0000000000000000        0x0 binaries/strncat.o
 .note.GNU-stack
                0x0000000000000000        0x0 binaries/strncmp.o
 .note.GNU-stack
                0x0000000000000000        0x0 binaries/strncpy.o
 .note.GNU-stack
                0x0000000000000000        0x0 binaries/strnlen.o
 .note.GNU-stack
                0x0000000000000000        0x0 binaries/strrchr.o
 .note.GNU-stack
                0x0000000000000000        0x0 binaries/strstr.o
 .note.GNU-stack
                0x0000000000000000        0x0 binaries/ttycontrol.o
 .note.GNU-stack
                0x0000000000000000        0x0 binaries/ttygetc.o
 .note.GNU-stack
                0x0000000000000000        0x0 binaries/ttyhandle_in.o
 .note.GNU-stack
                0x0000000000000000        0x0 binaries/ttyhandle_out.o
 .note.GNU-stack
                0x0000000000000000        0x0 binaries/ttyhandler.o
 .note.GNU-stack
                0x0000000000000000        0x0 binaries/ttyinit.o
 .note.GNU-stack
                0x0000000000000000        0x0 binaries/ttykickout.o
 .note.GNU-stack
                0x0000000000000000        0x0 binaries/ttyputc.o
 .note.GNU-stack
                0x0000000000000000        0x0 binaries/ttyread.o
 .note.GNU-stack
                0x0000000000000000        0x0 binaries/ttywrite.o
 .note.GNU-stack
                0x0000000000000000        0x0 binaries/mount.o
 .note.GNU-stack
                0x0000000000000000        0x0 binaries/naminit.o
 .note.GNU-stack
                0x0000000000000000        0x0 binaries/nammap.o
 .note.GNU-stack
                0x0000000000000000        0x0 binaries/namopen.o
 .note.GNU-stack
                0x0000000000000000        0x0 binaries/ramclose.o
 .note.GNU-stack
                0x0000000000000000        0x0 binaries/raminit.o
 .note.GNU-stack
                0x0000000000000000        0x0 binaries/ramopen.o
 .note.GNU-stack
                0x0000000000000000        0x0 binaries/ramread.o
 .note.GNU-stack
                0x0000000000000000        0x0 binaries/ramwrite.o
 .note.GNU-stack
                0x0000000000000000        0x0 binaries/lfdballoc.o
 .note.GNU-stack
                0x0000000000000000        0x0 binaries/lfdbfree.o
 .note.GNU-stack
                0x0000000000000000        0x0 binaries/lfflush.o
 .note.GNU-stack
                0x0000000000000000        0x0 binaries/lfgetmode.o
 .note.GNU-stack
                0x0000000000000000        0x0 binaries/lfiballoc.o
 .note.GNU-stack
                0x0000000000000000        0x0 binaries/lfibclear.o
 .note.GNU-stack
                0x0000000000000000        0x0 binaries/lfibget.o
 .note.GNU-stack
                0x0000000000000000        0x0 binaries/lfibput.o
 .note.GNU-stack
                0x0000000000000000        0x0 binaries/lflclose.o
 .note.GNU-stack
                0x0000000000000000        0x0 binaries/lflcontrol.o
 .note.GNU-stack
                0x0000000000000000        0x0 binaries/lflgetc.o
 .note.GNU-stack
                0x0000000000000000        0x0 binaries/lflinit.o
 .note.GNU-stack
                0x0000000000000000        0x0 binaries/lflputc.o
 .note.GNU-stack
                0x0000000000000000        0x0 binaries/lflread.o
 .note.GNU-stack
                0x0000000000000000        0x0 binaries/lflseek.o
 .note.GNU-stack
                0x0000000000000000        0x0 binaries/lflwrite.o
 .note.GNU-stack
                0x0000000000000000        0x0 binaries/lfscheck.o
 .note.GNU-stack
                0x0000000000000000        0x0 binaries/lfsckfmt.o
 .note.GNU-stack
                0x0000000000000000        0x0 binaries/lfscreate.o
 .note.GNU-stack
                0x0000000000000000        0x0 binaries/lfsetup.o
 .note.GNU-stack
                0x0000000000000000        0x0 binaries/lfsinit.o
 .note.GNU-stack
                0x0000000000000000        0x0 binaries/lfsopen.o
 .note.GNU-stack
                0x0000000000000000        0x0 binaries/lftruncate.o
 .note.GNU-stack
                0x0000000000000000        0x0 binaries/Lab5_vgacontrol.o
 .note.GNU-stack
                0x0000000000000000        0x0 binaries/Lab5_vgacursor.o
 .note.GNU-stack
                0x0000000000000000        0x0 binaries/Lab5_vgagetc.o
 .note.GNU-stack
                0x0000000000000000        0x0 binaries/Lab5_vgahandler.o
 .note.GNU-stack
                0x0000000000000000        0x0 binaries/Lab5_vgainit.o
 .note.GNU-stack
                0x0000000000000000        0x0 binaries/Lab5_vgaputc.o
 .note.GNU-stack
                0x0000000000000000        0x0 binaries/Lab5_vgaread.o
 .note.GNU-stack
                0x0000000000000000        0x0 binaries/Lab5_vgawrite.o
 .note.GNU-stack
                0x0000000000000000        0x0 binaries/Lab5_multiinit.o
 .note.GNU-stack
                0x0000000000000000        0x0 binaries/Lab5_multiputc.o
 .note.GNU-stack
                0x0000000000000000        0x0 binaries/Lab5_multiwrite.o
 .note.GNU-stack
                0x0000000000000000        0x0 binaries/disk.o
 .note.GNU-stack
                0x0000000000000000        0x0 binaries/diskflush.o
 .note.GNU-stack
                0x0000000000000000        0x0 binaries/diskgetc.o
 .note.GNU-stack
                0x0000000000000000        0x0 binaries/diskputc.o
 .note.GNU-stack
                0x0000000000000000        0x0 binaries/diskread.o
 .note.GNU-stack
                0x0000000000000000        0x0 binaries/diskseek.o
 .note.GNU-stack
                0x0000000000000000        0x0 binaries/diskwrite.o
 .note.GNU-stack
                0x0000000000000000        0x0 binaries/addargs.o
 .note.GNU-stack
                0x0000000000000000        0x0 binaries/lexan.o
 .note.GNU-stack
                0x0000000000000000        0x0 binaries/shell.o
 .note.GNU-stack
                0x0000000000000000        0x0 binaries/xsh_argecho.o
 .note.GNU-stack
                0x0000000000000000        0x0 binaries/xsh_cat.o
 .note.GNU-stack
                0x0000000000000000        0x0 binaries/xsh_clear.o
 .note.GNU-stack
                0x0000000000000000        0x0 binaries/xsh_date.o
 .note.GNU-stack
                0x0000000000000000        0x0 binaries/xsh_devdump.o
 .note.GNU-stack
                0x0000000000000000        0x0 binaries/xsh_echo.o
 .note.GNU-stack
                0x0000000000000000        0x0 binaries/xsh_exit.o
 .note.GNU-stack
                0x0000000000000000        0x0 binaries/xsh_help.o
 .note.GNU-stack
                0x0000000000000000        0x0 binaries/xsh_kill.o
 .note.GNU-stack
                0x0000000000000000        0x0 binaries/xsh_lab2.o
 .note.GNU-stack
                0x0000000000000000        0x0 binaries/xsh_lab3.o
 .note.GNU-stack
                0x0000000000000000        0x0 binaries/xsh_lab4.o
 .note.GNU-stack
                0x0000000000000000        0x0 binaries/xsh_lab5.o
 .note.GNU-stack
                0x0000000000000000        0x0 binaries/xsh_lab6.o
 .note.GNU-stack
                0x0000000000000000        0x0 binaries/xsh_memdump.o
 .note.GNU-stack
                0x0000000000000000        0x0 binaries/xsh_memstat.o
 .note.GNU-stack
                0x0000000000000000        0x0 binaries/xsh_ps.o
 .note.GNU-stack
                0x0000000000000000        0x0 binaries/xsh_sleep.o
 .note.GNU-stack
                0x0000000000000000        0x0 binaries/xsh_uptime.o

.debug_ranges   0x0000000000000000       0x50
 .debug_ranges  0x0000000000000000       0x18 binaries/Lab4_getheap.o
 .debug_ranges  0x0000000000000018       0x38 binaries/Lab4_memory_pools.o
